
/home/wjfan/syntacore/scr1_idtcm_2s/build/coremark.elf:     file format elf32-littleriscv


Disassembly of section .text.init:

00480000 <SIM_EXIT-0xf4>:
	...

004800f4 <SIM_EXIT>:
  4800f4:	00000013          	nop

004800f8 <SIM_STOP>:
  4800f8:	0000006f          	j	4800f8 <SIM_STOP>
  4800fc:	ffff                	0xffff
  4800fe:	ffff                	0xffff
	...

004801c0 <machine_trap_entry>:
  4801c0:	13c0006f          	j	4802fc <trap_entry>
  4801c4:	00000013          	nop
  4801c8:	00000013          	nop
  4801cc:	00000013          	nop
  4801d0:	00000013          	nop
  4801d4:	00000013          	nop
  4801d8:	00000013          	nop
  4801dc:	00000013          	nop
  4801e0:	00000013          	nop
  4801e4:	00000013          	nop
  4801e8:	00000013          	nop
  4801ec:	00000013          	nop
  4801f0:	00000013          	nop
  4801f4:	00000013          	nop
  4801f8:	00000013          	nop
  4801fc:	00000013          	nop

00480200 <_start>:
  480200:	00491197          	auipc	gp,0x491
  480204:	80018193          	addi	gp,gp,-2048 # 910a00 <__C_STACK_TOP__+0x470a00>
  480208:	00000517          	auipc	a0,0x0
  48020c:	23850513          	addi	a0,a0,568 # 480440 <__reloc_start>
  480210:	00000597          	auipc	a1,0x0
  480214:	23058593          	addi	a1,a1,560 # 480440 <__reloc_start>
  480218:	00010617          	auipc	a2,0x10
  48021c:	5d460613          	addi	a2,a2,1492 # 4907ec <__DATA_START__>
  480220:	02b50263          	beq	a0,a1,480244 <_start+0x44>
  480224:	0140006f          	j	480238 <_start+0x38>
  480228:	00052683          	lw	a3,0(a0)
  48022c:	00d5a023          	sw	a3,0(a1)
  480230:	00450513          	addi	a0,a0,4
  480234:	00458593          	addi	a1,a1,4
  480238:	fec598e3          	bne	a1,a2,480228 <_start+0x28>
  48023c:	00010617          	auipc	a2,0x10
  480240:	60460613          	addi	a2,a2,1540 # 490840 <__BSS_START__>
  480244:	00010597          	auipc	a1,0x10
  480248:	61c58593          	addi	a1,a1,1564 # 490860 <__BSS_END__>
  48024c:	00c0006f          	j	480258 <_start+0x58>
  480250:	00062023          	sw	zero,0(a2)
  480254:	00460613          	addi	a2,a2,4
  480258:	fec59ce3          	bne	a1,a2,480250 <_start+0x50>
  48025c:	00020117          	auipc	sp,0x20
  480260:	da410113          	addi	sp,sp,-604 # 4a0000 <__C_STACK_TOP__>
  480264:	00010517          	auipc	a0,0x10
  480268:	5bc50513          	addi	a0,a0,1468 # 490820 <_tdata_begin>
  48026c:	00010617          	auipc	a2,0x10
  480270:	63460613          	addi	a2,a2,1588 # 4908a0 <_tbss_end>
  480274:	40a605b3          	sub	a1,a2,a0
  480278:	00020717          	auipc	a4,0x20
  48027c:	98870713          	addi	a4,a4,-1656 # 49fc00 <__STACK_START__>
  480280:	40b70233          	sub	tp,a4,a1
  480284:	00020593          	mv	a1,tp
  480288:	00010617          	auipc	a2,0x10
  48028c:	59860613          	addi	a2,a2,1432 # 490820 <_tdata_begin>
  480290:	0140006f          	j	4802a4 <_start+0xa4>
  480294:	00052683          	lw	a3,0(a0)
  480298:	00d5a023          	sw	a3,0(a1)
  48029c:	00450513          	addi	a0,a0,4
  4802a0:	00458593          	addi	a1,a1,4
  4802a4:	fec518e3          	bne	a0,a2,480294 <_start+0x94>
  4802a8:	00c0006f          	j	4802b4 <_start+0xb4>
  4802ac:	0005a023          	sw	zero,0(a1)
  4802b0:	00458593          	addi	a1,a1,4
  4802b4:	fee59ce3          	bne	a1,a4,4802ac <_start+0xac>
  4802b8:	005002b7          	lui	t0,0x500
  4802bc:	00100313          	li	t1,1
  4802c0:	0062a023          	sw	t1,0(t0) # 500000 <__C_STACK_TOP__+0x60000>
  4802c4:	005002b7          	lui	t0,0x500
  4802c8:	00428293          	addi	t0,t0,4 # 500004 <__C_STACK_TOP__+0x60004>
  4802cc:	06300313          	li	t1,99
  4802d0:	0062a023          	sw	t1,0(t0)
  4802d4:	005002b7          	lui	t0,0x500
  4802d8:	01028293          	addi	t0,t0,16 # 500010 <__C_STACK_TOP__+0x60010>
  4802dc:	fff00313          	li	t1,-1
  4802e0:	0062a023          	sw	t1,0(t0)
  4802e4:	0062a223          	sw	t1,4(t0)
  4802e8:	00000513          	li	a0,0
  4802ec:	00000593          	li	a1,0
  4802f0:	00006297          	auipc	t0,0x6
  4802f4:	7c0280e7          	jalr	1984(t0) # 486ab0 <main>
  4802f8:	1180006f          	j	480410 <handle_trap>

004802fc <trap_entry>:
  4802fc:	ef010113          	addi	sp,sp,-272
  480300:	00112223          	sw	ra,4(sp)
  480304:	00212423          	sw	sp,8(sp)
  480308:	00312623          	sw	gp,12(sp)
  48030c:	00412823          	sw	tp,16(sp)
  480310:	00512a23          	sw	t0,20(sp)
  480314:	00612c23          	sw	t1,24(sp)
  480318:	00712e23          	sw	t2,28(sp)
  48031c:	02812023          	sw	s0,32(sp)
  480320:	02912223          	sw	s1,36(sp)
  480324:	02a12423          	sw	a0,40(sp)
  480328:	02b12623          	sw	a1,44(sp)
  48032c:	02c12823          	sw	a2,48(sp)
  480330:	02d12a23          	sw	a3,52(sp)
  480334:	02e12c23          	sw	a4,56(sp)
  480338:	02f12e23          	sw	a5,60(sp)
  48033c:	05012023          	sw	a6,64(sp)
  480340:	05112223          	sw	a7,68(sp)
  480344:	05212423          	sw	s2,72(sp)
  480348:	05312623          	sw	s3,76(sp)
  48034c:	05412823          	sw	s4,80(sp)
  480350:	05512a23          	sw	s5,84(sp)
  480354:	05612c23          	sw	s6,88(sp)
  480358:	05712e23          	sw	s7,92(sp)
  48035c:	07812023          	sw	s8,96(sp)
  480360:	07912223          	sw	s9,100(sp)
  480364:	07a12423          	sw	s10,104(sp)
  480368:	07b12623          	sw	s11,108(sp)
  48036c:	07c12823          	sw	t3,112(sp)
  480370:	07d12a23          	sw	t4,116(sp)
  480374:	07e12c23          	sw	t5,120(sp)
  480378:	07f12e23          	sw	t6,124(sp)
  48037c:	34202573          	csrr	a0,mcause
  480380:	341025f3          	csrr	a1,mepc
  480384:	00010613          	mv	a2,sp
  480388:	088000ef          	jal	ra,480410 <handle_trap>
  48038c:	00412083          	lw	ra,4(sp)
  480390:	00812103          	lw	sp,8(sp)
  480394:	00c12183          	lw	gp,12(sp)
  480398:	01012203          	lw	tp,16(sp)
  48039c:	01412283          	lw	t0,20(sp)
  4803a0:	01812303          	lw	t1,24(sp)
  4803a4:	01c12383          	lw	t2,28(sp)
  4803a8:	02012403          	lw	s0,32(sp)
  4803ac:	02412483          	lw	s1,36(sp)
  4803b0:	02812503          	lw	a0,40(sp)
  4803b4:	02c12583          	lw	a1,44(sp)
  4803b8:	03012603          	lw	a2,48(sp)
  4803bc:	03412683          	lw	a3,52(sp)
  4803c0:	03812703          	lw	a4,56(sp)
  4803c4:	03c12783          	lw	a5,60(sp)
  4803c8:	04012803          	lw	a6,64(sp)
  4803cc:	04412883          	lw	a7,68(sp)
  4803d0:	04812903          	lw	s2,72(sp)
  4803d4:	04c12983          	lw	s3,76(sp)
  4803d8:	05012a03          	lw	s4,80(sp)
  4803dc:	05412a83          	lw	s5,84(sp)
  4803e0:	05812b03          	lw	s6,88(sp)
  4803e4:	05c12b83          	lw	s7,92(sp)
  4803e8:	06012c03          	lw	s8,96(sp)
  4803ec:	06412c83          	lw	s9,100(sp)
  4803f0:	06812d03          	lw	s10,104(sp)
  4803f4:	06c12d83          	lw	s11,108(sp)
  4803f8:	07012e03          	lw	t3,112(sp)
  4803fc:	07412e83          	lw	t4,116(sp)
  480400:	07812f03          	lw	t5,120(sp)
  480404:	07c12f83          	lw	t6,124(sp)
  480408:	11010113          	addi	sp,sp,272
  48040c:	30200073          	mret

00480410 <handle_trap>:
  480410:	ce5ff06f          	j	4800f4 <SIM_EXIT>
	...

Disassembly of section .text:

00480440 <printf_putch>:
  480440:	04022803          	lw	a6,64(tp) # 40 <buflen.1776>
  480444:	00020293          	mv	t0,tp
  480448:	00180713          	addi	a4,a6,1
  48044c:	01028333          	add	t1,t0,a6
  480450:	04e22023          	sw	a4,64(tp) # 40 <buflen.1776>
  480454:	00a30023          	sb	a0,0(t1)
  480458:	00a00393          	li	t2,10
  48045c:	00750863          	beq	a0,t2,48046c <printf_putch+0x2c>
  480460:	04000513          	li	a0,64
  480464:	00a70663          	beq	a4,a0,480470 <printf_putch+0x30>
  480468:	00008067          	ret
  48046c:	10e05463          	blez	a4,480574 <printf_putch+0x134>
  480470:	00777e13          	andi	t3,a4,7
  480474:	00020793          	mv	a5,tp
  480478:	f0000eb7          	lui	t4,0xf0000
  48047c:	fff70f13          	addi	t5,a4,-1
  480480:	0a0e0463          	beqz	t3,480528 <printf_putch+0xe8>
  480484:	00100f93          	li	t6,1
  480488:	09fe0663          	beq	t3,t6,480514 <printf_putch+0xd4>
  48048c:	00200593          	li	a1,2
  480490:	06be0a63          	beq	t3,a1,480504 <printf_putch+0xc4>
  480494:	00300813          	li	a6,3
  480498:	050e0e63          	beq	t3,a6,4804f4 <printf_putch+0xb4>
  48049c:	00400693          	li	a3,4
  4804a0:	04de0263          	beq	t3,a3,4804e4 <printf_putch+0xa4>
  4804a4:	00500293          	li	t0,5
  4804a8:	025e0663          	beq	t3,t0,4804d4 <printf_putch+0x94>
  4804ac:	00600313          	li	t1,6
  4804b0:	006e0a63          	beq	t3,t1,4804c4 <printf_putch+0x84>
  4804b4:	0007c383          	lbu	t2,0(a5)
  4804b8:	000f0713          	mv	a4,t5
  4804bc:	00178793          	addi	a5,a5,1
  4804c0:	007e8023          	sb	t2,0(t4) # f0000000 <__C_STACK_TOP__+0xefb60000>
  4804c4:	0007c503          	lbu	a0,0(a5)
  4804c8:	fff70713          	addi	a4,a4,-1
  4804cc:	00178793          	addi	a5,a5,1
  4804d0:	00ae8023          	sb	a0,0(t4)
  4804d4:	0007c883          	lbu	a7,0(a5)
  4804d8:	fff70713          	addi	a4,a4,-1
  4804dc:	00178793          	addi	a5,a5,1
  4804e0:	011e8023          	sb	a7,0(t4)
  4804e4:	0007ce03          	lbu	t3,0(a5)
  4804e8:	fff70713          	addi	a4,a4,-1
  4804ec:	00178793          	addi	a5,a5,1
  4804f0:	01ce8023          	sb	t3,0(t4)
  4804f4:	0007cf03          	lbu	t5,0(a5)
  4804f8:	fff70713          	addi	a4,a4,-1
  4804fc:	00178793          	addi	a5,a5,1
  480500:	01ee8023          	sb	t5,0(t4)
  480504:	0007cf83          	lbu	t6,0(a5)
  480508:	fff70713          	addi	a4,a4,-1
  48050c:	00178793          	addi	a5,a5,1
  480510:	01fe8023          	sb	t6,0(t4)
  480514:	00178793          	addi	a5,a5,1
  480518:	fff7c583          	lbu	a1,-1(a5)
  48051c:	fff70713          	addi	a4,a4,-1
  480520:	00be8023          	sb	a1,0(t4)
  480524:	04070863          	beqz	a4,480574 <printf_putch+0x134>
  480528:	0007c803          	lbu	a6,0(a5)
  48052c:	00878793          	addi	a5,a5,8
  480530:	ff870713          	addi	a4,a4,-8
  480534:	010e8023          	sb	a6,0(t4)
  480538:	ff97c683          	lbu	a3,-7(a5)
  48053c:	00de8023          	sb	a3,0(t4)
  480540:	ffa7c283          	lbu	t0,-6(a5)
  480544:	005e8023          	sb	t0,0(t4)
  480548:	ffb7c303          	lbu	t1,-5(a5)
  48054c:	006e8023          	sb	t1,0(t4)
  480550:	ffc7c383          	lbu	t2,-4(a5)
  480554:	007e8023          	sb	t2,0(t4)
  480558:	ffd7c503          	lbu	a0,-3(a5)
  48055c:	00ae8023          	sb	a0,0(t4)
  480560:	ffe7c883          	lbu	a7,-2(a5)
  480564:	011e8023          	sb	a7,0(t4)
  480568:	fff7ce03          	lbu	t3,-1(a5)
  48056c:	01ce8023          	sb	t3,0(t4)
  480570:	fa071ce3          	bnez	a4,480528 <printf_putch+0xe8>
  480574:	04022023          	sw	zero,64(tp) # 40 <buflen.1776>
  480578:	00008067          	ret

0048057c <cmp_idx>:
  48057c:	02061e63          	bnez	a2,4805b8 <cmp_idx+0x3c>
  480580:	00051783          	lh	a5,0(a0)
  480584:	01079713          	slli	a4,a5,0x10
  480588:	01075293          	srli	t0,a4,0x10
  48058c:	f007f313          	andi	t1,a5,-256
  480590:	0082d393          	srli	t2,t0,0x8
  480594:	00736633          	or	a2,t1,t2
  480598:	00c51023          	sh	a2,0(a0)
  48059c:	00059683          	lh	a3,0(a1)
  4805a0:	01069813          	slli	a6,a3,0x10
  4805a4:	01085893          	srli	a7,a6,0x10
  4805a8:	f006fe13          	andi	t3,a3,-256
  4805ac:	0088de93          	srli	t4,a7,0x8
  4805b0:	01de6f33          	or	t5,t3,t4
  4805b4:	01e59023          	sh	t5,0(a1)
  4805b8:	00251503          	lh	a0,2(a0)
  4805bc:	00259583          	lh	a1,2(a1)
  4805c0:	40b50533          	sub	a0,a0,a1
  4805c4:	00008067          	ret

004805c8 <core_list_mergesort.constprop.2>:
  4805c8:	00100f93          	li	t6,1
  4805cc:	00100393          	li	t2,1
  4805d0:	1c050e63          	beqz	a0,4807ac <core_list_mergesort.constprop.2+0x1e4>
  4805d4:	00000693          	li	a3,0
  4805d8:	00000f13          	li	t5,0
  4805dc:	00000293          	li	t0,0
  4805e0:	007ff713          	andi	a4,t6,7
  4805e4:	00128293          	addi	t0,t0,1
  4805e8:	00050793          	mv	a5,a0
  4805ec:	00000613          	li	a2,0
  4805f0:	08070663          	beqz	a4,48067c <core_list_mergesort.constprop.2+0xb4>
  4805f4:	00100593          	li	a1,1
  4805f8:	06b70a63          	beq	a4,a1,48066c <core_list_mergesort.constprop.2+0xa4>
  4805fc:	00200313          	li	t1,2
  480600:	06670063          	beq	a4,t1,480660 <core_list_mergesort.constprop.2+0x98>
  480604:	00300813          	li	a6,3
  480608:	05070663          	beq	a4,a6,480654 <core_list_mergesort.constprop.2+0x8c>
  48060c:	00400893          	li	a7,4
  480610:	03170c63          	beq	a4,a7,480648 <core_list_mergesort.constprop.2+0x80>
  480614:	00500e13          	li	t3,5
  480618:	03c70263          	beq	a4,t3,48063c <core_list_mergesort.constprop.2+0x74>
  48061c:	00600e93          	li	t4,6
  480620:	01d70863          	beq	a4,t4,480630 <core_list_mergesort.constprop.2+0x68>
  480624:	00052783          	lw	a5,0(a0)
  480628:	00100613          	li	a2,1
  48062c:	0a078a63          	beqz	a5,4806e0 <core_list_mergesort.constprop.2+0x118>
  480630:	0007a783          	lw	a5,0(a5)
  480634:	00160613          	addi	a2,a2,1
  480638:	0a078463          	beqz	a5,4806e0 <core_list_mergesort.constprop.2+0x118>
  48063c:	0007a783          	lw	a5,0(a5)
  480640:	00160613          	addi	a2,a2,1
  480644:	08078e63          	beqz	a5,4806e0 <core_list_mergesort.constprop.2+0x118>
  480648:	0007a783          	lw	a5,0(a5)
  48064c:	00160613          	addi	a2,a2,1
  480650:	08078863          	beqz	a5,4806e0 <core_list_mergesort.constprop.2+0x118>
  480654:	0007a783          	lw	a5,0(a5)
  480658:	00160613          	addi	a2,a2,1
  48065c:	08078263          	beqz	a5,4806e0 <core_list_mergesort.constprop.2+0x118>
  480660:	0007a783          	lw	a5,0(a5)
  480664:	00160613          	addi	a2,a2,1
  480668:	06078c63          	beqz	a5,4806e0 <core_list_mergesort.constprop.2+0x118>
  48066c:	0007a783          	lw	a5,0(a5)
  480670:	00160613          	addi	a2,a2,1
  480674:	06078663          	beqz	a5,4806e0 <core_list_mergesort.constprop.2+0x118>
  480678:	07f60463          	beq	a2,t6,4806e0 <core_list_mergesort.constprop.2+0x118>
  48067c:	0007a783          	lw	a5,0(a5)
  480680:	00160613          	addi	a2,a2,1
  480684:	00060713          	mv	a4,a2
  480688:	04078c63          	beqz	a5,4806e0 <core_list_mergesort.constprop.2+0x118>
  48068c:	0007a783          	lw	a5,0(a5)
  480690:	00160613          	addi	a2,a2,1
  480694:	04078663          	beqz	a5,4806e0 <core_list_mergesort.constprop.2+0x118>
  480698:	0007a783          	lw	a5,0(a5)
  48069c:	00270613          	addi	a2,a4,2
  4806a0:	04078063          	beqz	a5,4806e0 <core_list_mergesort.constprop.2+0x118>
  4806a4:	0007a783          	lw	a5,0(a5)
  4806a8:	00370613          	addi	a2,a4,3
  4806ac:	02078a63          	beqz	a5,4806e0 <core_list_mergesort.constprop.2+0x118>
  4806b0:	0007a783          	lw	a5,0(a5)
  4806b4:	00470613          	addi	a2,a4,4
  4806b8:	02078463          	beqz	a5,4806e0 <core_list_mergesort.constprop.2+0x118>
  4806bc:	0007a783          	lw	a5,0(a5)
  4806c0:	00570613          	addi	a2,a4,5
  4806c4:	00078e63          	beqz	a5,4806e0 <core_list_mergesort.constprop.2+0x118>
  4806c8:	0007a783          	lw	a5,0(a5)
  4806cc:	00670613          	addi	a2,a4,6
  4806d0:	00078863          	beqz	a5,4806e0 <core_list_mergesort.constprop.2+0x118>
  4806d4:	0007a783          	lw	a5,0(a5)
  4806d8:	00770613          	addi	a2,a4,7
  4806dc:	f8079ee3          	bnez	a5,480678 <core_list_mergesort.constprop.2+0xb0>
  4806e0:	000f8593          	mv	a1,t6
  4806e4:	06060c63          	beqz	a2,48075c <core_list_mergesort.constprop.2+0x194>
  4806e8:	08058c63          	beqz	a1,480780 <core_list_mergesort.constprop.2+0x1b8>
  4806ec:	08078a63          	beqz	a5,480780 <core_list_mergesort.constprop.2+0x1b8>
  4806f0:	00452303          	lw	t1,4(a0)
  4806f4:	0047a883          	lw	a7,4(a5)
  4806f8:	00031703          	lh	a4,0(t1)
  4806fc:	00289e83          	lh	t4,2(a7)
  480700:	00231803          	lh	a6,2(t1)
  480704:	01071e13          	slli	t3,a4,0x10
  480708:	010e5e13          	srli	t3,t3,0x10
  48070c:	008e5e13          	srli	t3,t3,0x8
  480710:	f0077713          	andi	a4,a4,-256
  480714:	01c76733          	or	a4,a4,t3
  480718:	00e31023          	sh	a4,0(t1)
  48071c:	00089e03          	lh	t3,0(a7)
  480720:	41d80833          	sub	a6,a6,t4
  480724:	010e1313          	slli	t1,t3,0x10
  480728:	01035e93          	srli	t4,t1,0x10
  48072c:	f00e7713          	andi	a4,t3,-256
  480730:	008ede13          	srli	t3,t4,0x8
  480734:	01c76333          	or	t1,a4,t3
  480738:	00689023          	sh	t1,0(a7)
  48073c:	05005263          	blez	a6,480780 <core_list_mergesort.constprop.2+0x1b8>
  480740:	00078893          	mv	a7,a5
  480744:	0007a783          	lw	a5,0(a5)
  480748:	fff58593          	addi	a1,a1,-1
  48074c:	02068463          	beqz	a3,480774 <core_list_mergesort.constprop.2+0x1ac>
  480750:	0116a023          	sw	a7,0(a3)
  480754:	00088693          	mv	a3,a7
  480758:	f80618e3          	bnez	a2,4806e8 <core_list_mergesort.constprop.2+0x120>
  48075c:	02058a63          	beqz	a1,480790 <core_list_mergesort.constprop.2+0x1c8>
  480760:	02078c63          	beqz	a5,480798 <core_list_mergesort.constprop.2+0x1d0>
  480764:	00078893          	mv	a7,a5
  480768:	fff58593          	addi	a1,a1,-1
  48076c:	0007a783          	lw	a5,0(a5)
  480770:	fe0690e3          	bnez	a3,480750 <core_list_mergesort.constprop.2+0x188>
  480774:	00088f13          	mv	t5,a7
  480778:	00088693          	mv	a3,a7
  48077c:	fddff06f          	j	480758 <core_list_mergesort.constprop.2+0x190>
  480780:	00050893          	mv	a7,a0
  480784:	fff60613          	addi	a2,a2,-1
  480788:	00052503          	lw	a0,0(a0)
  48078c:	fc1ff06f          	j	48074c <core_list_mergesort.constprop.2+0x184>
  480790:	00078513          	mv	a0,a5
  480794:	e40796e3          	bnez	a5,4805e0 <core_list_mergesort.constprop.2+0x18>
  480798:	0006a023          	sw	zero,0(a3)
  48079c:	00728c63          	beq	t0,t2,4807b4 <core_list_mergesort.constprop.2+0x1ec>
  4807a0:	001f9f93          	slli	t6,t6,0x1
  4807a4:	000f0513          	mv	a0,t5
  4807a8:	e29ff06f          	j	4805d0 <core_list_mergesort.constprop.2+0x8>
  4807ac:	00002023          	sw	zero,0(zero) # 0 <buf.1775>
  4807b0:	00100073          	ebreak
  4807b4:	000f0513          	mv	a0,t5
  4807b8:	00008067          	ret

004807bc <crcu16>:
  4807bc:	00a5c733          	xor	a4,a1,a0
  4807c0:	0ff57693          	andi	a3,a0,255
  4807c4:	00177293          	andi	t0,a4,1
  4807c8:	0016d613          	srli	a2,a3,0x1
  4807cc:	0015d813          	srli	a6,a1,0x1
  4807d0:	00028c63          	beqz	t0,4807e8 <crcu16+0x2c>
  4807d4:	ffffa337          	lui	t1,0xffffa
  4807d8:	00130393          	addi	t2,t1,1 # ffffa001 <__C_STACK_TOP__+0xffb5a001>
  4807dc:	007847b3          	xor	a5,a6,t2
  4807e0:	01079593          	slli	a1,a5,0x10
  4807e4:	0105d813          	srli	a6,a1,0x10
  4807e8:	00c848b3          	xor	a7,a6,a2
  4807ec:	0018fe13          	andi	t3,a7,1
  4807f0:	0026de93          	srli	t4,a3,0x2
  4807f4:	00185313          	srli	t1,a6,0x1
  4807f8:	000e0c63          	beqz	t3,480810 <crcu16+0x54>
  4807fc:	ffffaf37          	lui	t5,0xffffa
  480800:	001f0f93          	addi	t6,t5,1 # ffffa001 <__C_STACK_TOP__+0xffb5a001>
  480804:	01f34733          	xor	a4,t1,t6
  480808:	01071293          	slli	t0,a4,0x10
  48080c:	0102d313          	srli	t1,t0,0x10
  480810:	01d34633          	xor	a2,t1,t4
  480814:	00167393          	andi	t2,a2,1
  480818:	0036d593          	srli	a1,a3,0x3
  48081c:	00135e93          	srli	t4,t1,0x1
  480820:	00038c63          	beqz	t2,480838 <crcu16+0x7c>
  480824:	ffffa837          	lui	a6,0xffffa
  480828:	00180893          	addi	a7,a6,1 # ffffa001 <__C_STACK_TOP__+0xffb5a001>
  48082c:	011ec7b3          	xor	a5,t4,a7
  480830:	01079e13          	slli	t3,a5,0x10
  480834:	010e5e93          	srli	t4,t3,0x10
  480838:	00becf33          	xor	t5,t4,a1
  48083c:	001f7f93          	andi	t6,t5,1
  480840:	0046d713          	srli	a4,a3,0x4
  480844:	001ed593          	srli	a1,t4,0x1
  480848:	000f8c63          	beqz	t6,480860 <crcu16+0xa4>
  48084c:	ffffa2b7          	lui	t0,0xffffa
  480850:	00128313          	addi	t1,t0,1 # ffffa001 <__C_STACK_TOP__+0xffb5a001>
  480854:	0065c633          	xor	a2,a1,t1
  480858:	01061393          	slli	t2,a2,0x10
  48085c:	0103d593          	srli	a1,t2,0x10
  480860:	00e5c833          	xor	a6,a1,a4
  480864:	00187893          	andi	a7,a6,1
  480868:	0056de13          	srli	t3,a3,0x5
  48086c:	0015d293          	srli	t0,a1,0x1
  480870:	00088c63          	beqz	a7,480888 <crcu16+0xcc>
  480874:	ffffaeb7          	lui	t4,0xffffa
  480878:	001e8f13          	addi	t5,t4,1 # ffffa001 <__C_STACK_TOP__+0xffb5a001>
  48087c:	01e2c7b3          	xor	a5,t0,t5
  480880:	01079f93          	slli	t6,a5,0x10
  480884:	010fd293          	srli	t0,t6,0x10
  480888:	01c2c733          	xor	a4,t0,t3
  48088c:	00177313          	andi	t1,a4,1
  480890:	0066d393          	srli	t2,a3,0x6
  480894:	0012de13          	srli	t3,t0,0x1
  480898:	00030c63          	beqz	t1,4808b0 <crcu16+0xf4>
  48089c:	ffffa637          	lui	a2,0xffffa
  4808a0:	00160593          	addi	a1,a2,1 # ffffa001 <__C_STACK_TOP__+0xffb5a001>
  4808a4:	00be4833          	xor	a6,t3,a1
  4808a8:	01081893          	slli	a7,a6,0x10
  4808ac:	0108de13          	srli	t3,a7,0x10
  4808b0:	007e4eb3          	xor	t4,t3,t2
  4808b4:	001eff13          	andi	t5,t4,1
  4808b8:	0076d693          	srli	a3,a3,0x7
  4808bc:	001e5313          	srli	t1,t3,0x1
  4808c0:	000f0c63          	beqz	t5,4808d8 <crcu16+0x11c>
  4808c4:	ffffafb7          	lui	t6,0xffffa
  4808c8:	001f8293          	addi	t0,t6,1 # ffffa001 <__C_STACK_TOP__+0xffb5a001>
  4808cc:	005347b3          	xor	a5,t1,t0
  4808d0:	01079713          	slli	a4,a5,0x10
  4808d4:	01075313          	srli	t1,a4,0x10
  4808d8:	00137393          	andi	t2,t1,1
  4808dc:	00135e13          	srli	t3,t1,0x1
  4808e0:	00d38c63          	beq	t2,a3,4808f8 <crcu16+0x13c>
  4808e4:	ffffa637          	lui	a2,0xffffa
  4808e8:	00160593          	addi	a1,a2,1 # ffffa001 <__C_STACK_TOP__+0xffb5a001>
  4808ec:	00be4833          	xor	a6,t3,a1
  4808f0:	01081893          	slli	a7,a6,0x10
  4808f4:	0108de13          	srli	t3,a7,0x10
  4808f8:	00855513          	srli	a0,a0,0x8
  4808fc:	00ae4eb3          	xor	t4,t3,a0
  480900:	0ff57f13          	andi	t5,a0,255
  480904:	001eff93          	andi	t6,t4,1
  480908:	001f5693          	srli	a3,t5,0x1
  48090c:	001e5393          	srli	t2,t3,0x1
  480910:	000f8c63          	beqz	t6,480928 <crcu16+0x16c>
  480914:	ffffa2b7          	lui	t0,0xffffa
  480918:	00128793          	addi	a5,t0,1 # ffffa001 <__C_STACK_TOP__+0xffb5a001>
  48091c:	00f3c733          	xor	a4,t2,a5
  480920:	01071313          	slli	t1,a4,0x10
  480924:	01035393          	srli	t2,t1,0x10
  480928:	0076c633          	xor	a2,a3,t2
  48092c:	00167593          	andi	a1,a2,1
  480930:	002f5813          	srli	a6,t5,0x2
  480934:	0013df93          	srli	t6,t2,0x1
  480938:	00058c63          	beqz	a1,480950 <crcu16+0x194>
  48093c:	ffffa8b7          	lui	a7,0xffffa
  480940:	00188e13          	addi	t3,a7,1 # ffffa001 <__C_STACK_TOP__+0xffb5a001>
  480944:	01cfc533          	xor	a0,t6,t3
  480948:	01051e93          	slli	t4,a0,0x10
  48094c:	010edf93          	srli	t6,t4,0x10
  480950:	010fc6b3          	xor	a3,t6,a6
  480954:	0016f293          	andi	t0,a3,1
  480958:	003f5713          	srli	a4,t5,0x3
  48095c:	001fd593          	srli	a1,t6,0x1
  480960:	00028c63          	beqz	t0,480978 <crcu16+0x1bc>
  480964:	ffffa7b7          	lui	a5,0xffffa
  480968:	00178313          	addi	t1,a5,1 # ffffa001 <__C_STACK_TOP__+0xffb5a001>
  48096c:	0065c3b3          	xor	t2,a1,t1
  480970:	01039613          	slli	a2,t2,0x10
  480974:	01065593          	srli	a1,a2,0x10
  480978:	00e5c833          	xor	a6,a1,a4
  48097c:	00187893          	andi	a7,a6,1
  480980:	004f5e13          	srli	t3,t5,0x4
  480984:	0015d293          	srli	t0,a1,0x1
  480988:	00088c63          	beqz	a7,4809a0 <crcu16+0x1e4>
  48098c:	ffffaeb7          	lui	t4,0xffffa
  480990:	001e8f93          	addi	t6,t4,1 # ffffa001 <__C_STACK_TOP__+0xffb5a001>
  480994:	01f2c533          	xor	a0,t0,t6
  480998:	01051693          	slli	a3,a0,0x10
  48099c:	0106d293          	srli	t0,a3,0x10
  4809a0:	01c2c733          	xor	a4,t0,t3
  4809a4:	00177793          	andi	a5,a4,1
  4809a8:	005f5313          	srli	t1,t5,0x5
  4809ac:	0012d893          	srli	a7,t0,0x1
  4809b0:	00078c63          	beqz	a5,4809c8 <crcu16+0x20c>
  4809b4:	ffffa3b7          	lui	t2,0xffffa
  4809b8:	00138613          	addi	a2,t2,1 # ffffa001 <__C_STACK_TOP__+0xffb5a001>
  4809bc:	00c8c5b3          	xor	a1,a7,a2
  4809c0:	01059813          	slli	a6,a1,0x10
  4809c4:	01085893          	srli	a7,a6,0x10
  4809c8:	0068ce33          	xor	t3,a7,t1
  4809cc:	001e7e93          	andi	t4,t3,1
  4809d0:	006f5f93          	srli	t6,t5,0x6
  4809d4:	0018d313          	srli	t1,a7,0x1
  4809d8:	000e8c63          	beqz	t4,4809f0 <crcu16+0x234>
  4809dc:	ffffa6b7          	lui	a3,0xffffa
  4809e0:	00168293          	addi	t0,a3,1 # ffffa001 <__C_STACK_TOP__+0xffb5a001>
  4809e4:	00534533          	xor	a0,t1,t0
  4809e8:	01051713          	slli	a4,a0,0x10
  4809ec:	01075313          	srli	t1,a4,0x10
  4809f0:	01f347b3          	xor	a5,t1,t6
  4809f4:	0017f393          	andi	t2,a5,1
  4809f8:	007f5f13          	srli	t5,t5,0x7
  4809fc:	00135e13          	srli	t3,t1,0x1
  480a00:	00038c63          	beqz	t2,480a18 <crcu16+0x25c>
  480a04:	ffffa637          	lui	a2,0xffffa
  480a08:	00160593          	addi	a1,a2,1 # ffffa001 <__C_STACK_TOP__+0xffb5a001>
  480a0c:	00be4833          	xor	a6,t3,a1
  480a10:	01081893          	slli	a7,a6,0x10
  480a14:	0108de13          	srli	t3,a7,0x10
  480a18:	001e7e93          	andi	t4,t3,1
  480a1c:	001e5513          	srli	a0,t3,0x1
  480a20:	01ee8c63          	beq	t4,t5,480a38 <crcu16+0x27c>
  480a24:	ffffafb7          	lui	t6,0xffffa
  480a28:	001f8693          	addi	a3,t6,1 # ffffa001 <__C_STACK_TOP__+0xffb5a001>
  480a2c:	00d542b3          	xor	t0,a0,a3
  480a30:	01029513          	slli	a0,t0,0x10
  480a34:	01055513          	srli	a0,a0,0x10
  480a38:	00008067          	ret

00480a3c <core_state_transition>:
  480a3c:	00052783          	lw	a5,0(a0)
  480a40:	0007c683          	lbu	a3,0(a5)
  480a44:	2c068c63          	beqz	a3,480d1c <core_state_transition+0x2e0>
  480a48:	02c00613          	li	a2,44
  480a4c:	00178713          	addi	a4,a5,1
  480a50:	2ac68263          	beq	a3,a2,480cf4 <core_state_transition+0x2b8>
  480a54:	0005a803          	lw	a6,0(a1)
  480a58:	fd068893          	addi	a7,a3,-48
  480a5c:	0ff8f293          	andi	t0,a7,255
  480a60:	00900313          	li	t1,9
  480a64:	00180393          	addi	t2,a6,1
  480a68:	04536a63          	bltu	t1,t0,480abc <core_state_transition+0x80>
  480a6c:	0075a023          	sw	t2,0(a1)
  480a70:	0017c303          	lbu	t1,1(a5)
  480a74:	0e030263          	beqz	t1,480b58 <core_state_transition+0x11c>
  480a78:	00278793          	addi	a5,a5,2
  480a7c:	0cc30c63          	beq	t1,a2,480b54 <core_state_transition+0x118>
  480a80:	02e00f13          	li	t5,46
  480a84:	00900f93          	li	t6,9
  480a88:	02c00813          	li	a6,44
  480a8c:	fd030613          	addi	a2,t1,-48
  480a90:	0ff67893          	andi	a7,a2,255
  480a94:	0de30663          	beq	t1,t5,480b60 <core_state_transition+0x124>
  480a98:	211ff463          	bleu	a7,t6,480ca0 <core_state_transition+0x264>
  480a9c:	0105a683          	lw	a3,16(a1)
  480aa0:	00078713          	mv	a4,a5
  480aa4:	00100393          	li	t2,1
  480aa8:	00168293          	addi	t0,a3,1
  480aac:	0055a823          	sw	t0,16(a1)
  480ab0:	00e52023          	sw	a4,0(a0)
  480ab4:	00038513          	mv	a0,t2
  480ab8:	00008067          	ret
  480abc:	02b00e13          	li	t3,43
  480ac0:	03c68a63          	beq	a3,t3,480af4 <core_state_transition+0xb8>
  480ac4:	02d00e93          	li	t4,45
  480ac8:	03d68663          	beq	a3,t4,480af4 <core_state_transition+0xb8>
  480acc:	02e00f13          	li	t5,46
  480ad0:	23e68663          	beq	a3,t5,480cfc <core_state_transition+0x2c0>
  480ad4:	0045af83          	lw	t6,4(a1)
  480ad8:	0075a023          	sw	t2,0(a1)
  480adc:	00100393          	li	t2,1
  480ae0:	001f8693          	addi	a3,t6,1
  480ae4:	00d5a223          	sw	a3,4(a1)
  480ae8:	00e52023          	sw	a4,0(a0)
  480aec:	00038513          	mv	a0,t2
  480af0:	00008067          	ret
  480af4:	0075a023          	sw	t2,0(a1)
  480af8:	0017c803          	lbu	a6,1(a5)
  480afc:	22080663          	beqz	a6,480d28 <core_state_transition+0x2ec>
  480b00:	00278713          	addi	a4,a5,2
  480b04:	22c80263          	beq	a6,a2,480d28 <core_state_transition+0x2ec>
  480b08:	0085a603          	lw	a2,8(a1)
  480b0c:	fd080893          	addi	a7,a6,-48
  480b10:	0ff8f293          	andi	t0,a7,255
  480b14:	00900313          	li	t1,9
  480b18:	00160393          	addi	t2,a2,1
  480b1c:	02537063          	bleu	t0,t1,480b3c <core_state_transition+0x100>
  480b20:	02e00e13          	li	t3,46
  480b24:	1bc80863          	beq	a6,t3,480cd4 <core_state_transition+0x298>
  480b28:	0075a423          	sw	t2,8(a1)
  480b2c:	00100393          	li	t2,1
  480b30:	00e52023          	sw	a4,0(a0)
  480b34:	00038513          	mv	a0,t2
  480b38:	00008067          	ret
  480b3c:	0075a423          	sw	t2,8(a1)
  480b40:	0027c303          	lbu	t1,2(a5)
  480b44:	00030a63          	beqz	t1,480b58 <core_state_transition+0x11c>
  480b48:	02c00e93          	li	t4,44
  480b4c:	00170793          	addi	a5,a4,1
  480b50:	f3d318e3          	bne	t1,t4,480a80 <core_state_transition+0x44>
  480b54:	00078713          	mv	a4,a5
  480b58:	00400393          	li	t2,4
  480b5c:	f55ff06f          	j	480ab0 <core_state_transition+0x74>
  480b60:	0105ae03          	lw	t3,16(a1)
  480b64:	001e0e93          	addi	t4,t3,1
  480b68:	01d5a823          	sw	t4,16(a1)
  480b6c:	00174383          	lbu	t2,1(a4)
  480b70:	1e038663          	beqz	t2,480d5c <core_state_transition+0x320>
  480b74:	02c00713          	li	a4,44
  480b78:	00178e13          	addi	t3,a5,1
  480b7c:	18e38a63          	beq	t2,a4,480d10 <core_state_transition+0x2d4>
  480b80:	fd038893          	addi	a7,t2,-48
  480b84:	04500f13          	li	t5,69
  480b88:	0df3f693          	andi	a3,t2,223
  480b8c:	00900f93          	li	t6,9
  480b90:	02c00613          	li	a2,44
  480b94:	0ff8f293          	andi	t0,a7,255
  480b98:	03e68863          	beq	a3,t5,480bc8 <core_state_transition+0x18c>
  480b9c:	125fe063          	bltu	t6,t0,480cbc <core_state_transition+0x280>
  480ba0:	0017c383          	lbu	t2,1(a5)
  480ba4:	001e0713          	addi	a4,t3,1
  480ba8:	000e0793          	mv	a5,t3
  480bac:	16038263          	beqz	t2,480d10 <core_state_transition+0x2d4>
  480bb0:	16c38263          	beq	t2,a2,480d14 <core_state_transition+0x2d8>
  480bb4:	fd038893          	addi	a7,t2,-48
  480bb8:	0df3f693          	andi	a3,t2,223
  480bbc:	00070e13          	mv	t3,a4
  480bc0:	0ff8f293          	andi	t0,a7,255
  480bc4:	fde69ce3          	bne	a3,t5,480b9c <core_state_transition+0x160>
  480bc8:	0145ae83          	lw	t4,20(a1)
  480bcc:	001e8713          	addi	a4,t4,1
  480bd0:	00e5aa23          	sw	a4,20(a1)
  480bd4:	0017cf03          	lbu	t5,1(a5)
  480bd8:	140f0c63          	beqz	t5,480d30 <core_state_transition+0x2f4>
  480bdc:	02c00f93          	li	t6,44
  480be0:	001e0713          	addi	a4,t3,1
  480be4:	15ff0863          	beq	t5,t6,480d34 <core_state_transition+0x2f8>
  480be8:	00c5a603          	lw	a2,12(a1)
  480bec:	fd5f0893          	addi	a7,t5,-43
  480bf0:	0fd8f293          	andi	t0,a7,253
  480bf4:	00160693          	addi	a3,a2,1
  480bf8:	00d5a623          	sw	a3,12(a1)
  480bfc:	00028a63          	beqz	t0,480c10 <core_state_transition+0x1d4>
  480c00:	00100393          	li	t2,1
  480c04:	00e52023          	sw	a4,0(a0)
  480c08:	00038513          	mv	a0,t2
  480c0c:	00008067          	ret
  480c10:	001e4303          	lbu	t1,1(t3)
  480c14:	12030463          	beqz	t1,480d3c <core_state_transition+0x300>
  480c18:	002e0693          	addi	a3,t3,2
  480c1c:	13f30463          	beq	t1,t6,480d44 <core_state_transition+0x308>
  480c20:	0185a803          	lw	a6,24(a1)
  480c24:	fd030393          	addi	t2,t1,-48
  480c28:	0ff3f793          	andi	a5,t2,255
  480c2c:	00180713          	addi	a4,a6,1
  480c30:	00900e93          	li	t4,9
  480c34:	00e5ac23          	sw	a4,24(a1)
  480c38:	00fef863          	bleu	a5,t4,480c48 <core_state_transition+0x20c>
  480c3c:	00068713          	mv	a4,a3
  480c40:	00100393          	li	t2,1
  480c44:	fc1ff06f          	j	480c04 <core_state_transition+0x1c8>
  480c48:	002e4303          	lbu	t1,2(t3)
  480c4c:	10030263          	beqz	t1,480d50 <core_state_transition+0x314>
  480c50:	003e0713          	addi	a4,t3,3
  480c54:	05f30263          	beq	t1,t6,480c98 <core_state_transition+0x25c>
  480c58:	00900e13          	li	t3,9
  480c5c:	02c00f13          	li	t5,44
  480c60:	fd030f93          	addi	t6,t1,-48
  480c64:	0ffff613          	andi	a2,t6,255
  480c68:	00ce7c63          	bleu	a2,t3,480c80 <core_state_transition+0x244>
  480c6c:	0045a883          	lw	a7,4(a1)
  480c70:	00100393          	li	t2,1
  480c74:	00188293          	addi	t0,a7,1
  480c78:	0055a223          	sw	t0,4(a1)
  480c7c:	e35ff06f          	j	480ab0 <core_state_transition+0x74>
  480c80:	0016c303          	lbu	t1,1(a3)
  480c84:	00170813          	addi	a6,a4,1
  480c88:	00070693          	mv	a3,a4
  480c8c:	00030663          	beqz	t1,480c98 <core_state_transition+0x25c>
  480c90:	00080713          	mv	a4,a6
  480c94:	fde316e3          	bne	t1,t5,480c60 <core_state_transition+0x224>
  480c98:	00700393          	li	t2,7
  480c9c:	e15ff06f          	j	480ab0 <core_state_transition+0x74>
  480ca0:	00174303          	lbu	t1,1(a4)
  480ca4:	00178393          	addi	t2,a5,1
  480ca8:	00078713          	mv	a4,a5
  480cac:	ea0304e3          	beqz	t1,480b54 <core_state_transition+0x118>
  480cb0:	0b030c63          	beq	t1,a6,480d68 <core_state_transition+0x32c>
  480cb4:	00038793          	mv	a5,t2
  480cb8:	dd5ff06f          	j	480a8c <core_state_transition+0x50>
  480cbc:	0145a303          	lw	t1,20(a1)
  480cc0:	000e0713          	mv	a4,t3
  480cc4:	00100393          	li	t2,1
  480cc8:	00130813          	addi	a6,t1,1
  480ccc:	0105aa23          	sw	a6,20(a1)
  480cd0:	de1ff06f          	j	480ab0 <core_state_transition+0x74>
  480cd4:	0075a423          	sw	t2,8(a1)
  480cd8:	0027c383          	lbu	t2,2(a5)
  480cdc:	02038c63          	beqz	t2,480d14 <core_state_transition+0x2d8>
  480ce0:	02c00793          	li	a5,44
  480ce4:	00170e13          	addi	t3,a4,1
  480ce8:	02f38463          	beq	t2,a5,480d10 <core_state_transition+0x2d4>
  480cec:	00070793          	mv	a5,a4
  480cf0:	e91ff06f          	j	480b80 <core_state_transition+0x144>
  480cf4:	00000393          	li	t2,0
  480cf8:	db9ff06f          	j	480ab0 <core_state_transition+0x74>
  480cfc:	0075a023          	sw	t2,0(a1)
  480d00:	0017c383          	lbu	t2,1(a5)
  480d04:	00038863          	beqz	t2,480d14 <core_state_transition+0x2d8>
  480d08:	00278e13          	addi	t3,a5,2
  480d0c:	fec390e3          	bne	t2,a2,480cec <core_state_transition+0x2b0>
  480d10:	000e0713          	mv	a4,t3
  480d14:	00500393          	li	t2,5
  480d18:	d99ff06f          	j	480ab0 <core_state_transition+0x74>
  480d1c:	00078713          	mv	a4,a5
  480d20:	00000393          	li	t2,0
  480d24:	d8dff06f          	j	480ab0 <core_state_transition+0x74>
  480d28:	00200393          	li	t2,2
  480d2c:	d85ff06f          	j	480ab0 <core_state_transition+0x74>
  480d30:	000e0713          	mv	a4,t3
  480d34:	00300393          	li	t2,3
  480d38:	d79ff06f          	j	480ab0 <core_state_transition+0x74>
  480d3c:	00600393          	li	t2,6
  480d40:	d71ff06f          	j	480ab0 <core_state_transition+0x74>
  480d44:	00068713          	mv	a4,a3
  480d48:	00600393          	li	t2,6
  480d4c:	d65ff06f          	j	480ab0 <core_state_transition+0x74>
  480d50:	00068713          	mv	a4,a3
  480d54:	00700393          	li	t2,7
  480d58:	d59ff06f          	j	480ab0 <core_state_transition+0x74>
  480d5c:	00078713          	mv	a4,a5
  480d60:	00500393          	li	t2,5
  480d64:	d4dff06f          	j	480ab0 <core_state_transition+0x74>
  480d68:	00038713          	mv	a4,t2
  480d6c:	00400393          	li	t2,4
  480d70:	d41ff06f          	j	480ab0 <core_state_transition+0x74>

00480d74 <calc_func>:
  480d74:	00051703          	lh	a4,0(a0)
  480d78:	f4010113          	addi	sp,sp,-192
  480d7c:	0a112e23          	sw	ra,188(sp)
  480d80:	40775793          	srai	a5,a4,0x7
  480d84:	0017f093          	andi	ra,a5,1
  480d88:	0a812c23          	sw	s0,184(sp)
  480d8c:	0a912a23          	sw	s1,180(sp)
  480d90:	0b212823          	sw	s2,176(sp)
  480d94:	0b312623          	sw	s3,172(sp)
  480d98:	0b412423          	sw	s4,168(sp)
  480d9c:	0b512223          	sw	s5,164(sp)
  480da0:	0b612023          	sw	s6,160(sp)
  480da4:	09712e23          	sw	s7,156(sp)
  480da8:	09812c23          	sw	s8,152(sp)
  480dac:	09912a23          	sw	s9,148(sp)
  480db0:	09a12823          	sw	s10,144(sp)
  480db4:	09b12623          	sw	s11,140(sp)
  480db8:	00e12023          	sw	a4,0(sp)
  480dbc:	00112223          	sw	ra,4(sp)
  480dc0:	2e009063          	bnez	ra,4810a0 <calc_func+0x32c>
  480dc4:	40375293          	srai	t0,a4,0x3
  480dc8:	00f2f313          	andi	t1,t0,15
  480dcc:	00431693          	slli	a3,t1,0x4
  480dd0:	00b12423          	sw	a1,8(sp)
  480dd4:	00a12a23          	sw	a0,20(sp)
  480dd8:	00777393          	andi	t2,a4,7
  480ddc:	0066e6b3          	or	a3,a3,t1
  480de0:	0385d403          	lhu	s0,56(a1)
  480de4:	1e0382e3          	beqz	t2,4817c8 <calc_func+0xa54>
  480de8:	00100493          	li	s1,1
  480dec:	2e938a63          	beq	t2,s1,4810e0 <calc_func+0x36c>
  480df0:	00012803          	lw	a6,0(sp)
  480df4:	01044933          	xor	s2,s0,a6
  480df8:	0ff87f13          	andi	t5,a6,255
  480dfc:	01081513          	slli	a0,a6,0x10
  480e00:	00197713          	andi	a4,s2,1
  480e04:	01055d93          	srli	s11,a0,0x10
  480e08:	001f5293          	srli	t0,t5,0x1
  480e0c:	00145b13          	srli	s6,s0,0x1
  480e10:	00070c63          	beqz	a4,480e28 <calc_func+0xb4>
  480e14:	ffffa437          	lui	s0,0xffffa
  480e18:	00140393          	addi	t2,s0,1 # ffffa001 <__C_STACK_TOP__+0xffb5a001>
  480e1c:	007b4bb3          	xor	s7,s6,t2
  480e20:	010b9a93          	slli	s5,s7,0x10
  480e24:	010adb13          	srli	s6,s5,0x10
  480e28:	005b40b3          	xor	ra,s6,t0
  480e2c:	0010fc13          	andi	s8,ra,1
  480e30:	002f5f93          	srli	t6,t5,0x2
  480e34:	001b5893          	srli	a7,s6,0x1
  480e38:	000c0c63          	beqz	s8,480e50 <calc_func+0xdc>
  480e3c:	ffffa337          	lui	t1,0xffffa
  480e40:	00130a13          	addi	s4,t1,1 # ffffa001 <__C_STACK_TOP__+0xffb5a001>
  480e44:	0148c7b3          	xor	a5,a7,s4
  480e48:	01079c93          	slli	s9,a5,0x10
  480e4c:	010cd893          	srli	a7,s9,0x10
  480e50:	011fc5b3          	xor	a1,t6,a7
  480e54:	0015fd13          	andi	s10,a1,1
  480e58:	003f5e93          	srli	t4,t5,0x3
  480e5c:	0018d693          	srli	a3,a7,0x1
  480e60:	000d0c63          	beqz	s10,480e78 <calc_func+0x104>
  480e64:	ffffae37          	lui	t3,0xffffa
  480e68:	001e0613          	addi	a2,t3,1 # ffffa001 <__C_STACK_TOP__+0xffb5a001>
  480e6c:	00c6c4b3          	xor	s1,a3,a2
  480e70:	01049993          	slli	s3,s1,0x10
  480e74:	0109d693          	srli	a3,s3,0x10
  480e78:	01d6c933          	xor	s2,a3,t4
  480e7c:	00197713          	andi	a4,s2,1
  480e80:	004f5293          	srli	t0,t5,0x4
  480e84:	0016da93          	srli	s5,a3,0x1
  480e88:	00070c63          	beqz	a4,480ea0 <calc_func+0x12c>
  480e8c:	ffffa537          	lui	a0,0xffffa
  480e90:	00150413          	addi	s0,a0,1 # ffffa001 <__C_STACK_TOP__+0xffb5a001>
  480e94:	008ac3b3          	xor	t2,s5,s0
  480e98:	01039b93          	slli	s7,t2,0x10
  480e9c:	010bda93          	srli	s5,s7,0x10
  480ea0:	0152cb33          	xor	s6,t0,s5
  480ea4:	001b7093          	andi	ra,s6,1
  480ea8:	005f5c13          	srli	s8,t5,0x5
  480eac:	001adc93          	srli	s9,s5,0x1
  480eb0:	00008c63          	beqz	ra,480ec8 <calc_func+0x154>
  480eb4:	ffffafb7          	lui	t6,0xffffa
  480eb8:	001f8313          	addi	t1,t6,1 # ffffa001 <__C_STACK_TOP__+0xffb5a001>
  480ebc:	006cca33          	xor	s4,s9,t1
  480ec0:	010a1793          	slli	a5,s4,0x10
  480ec4:	0107dc93          	srli	s9,a5,0x10
  480ec8:	018cc8b3          	xor	a7,s9,s8
  480ecc:	0018f593          	andi	a1,a7,1
  480ed0:	006f5d13          	srli	s10,t5,0x6
  480ed4:	001cd993          	srli	s3,s9,0x1
  480ed8:	00058c63          	beqz	a1,480ef0 <calc_func+0x17c>
  480edc:	ffffaeb7          	lui	t4,0xffffa
  480ee0:	001e8e13          	addi	t3,t4,1 # ffffa001 <__C_STACK_TOP__+0xffb5a001>
  480ee4:	01c9c633          	xor	a2,s3,t3
  480ee8:	01061493          	slli	s1,a2,0x10
  480eec:	0104d993          	srli	s3,s1,0x10
  480ef0:	013d46b3          	xor	a3,s10,s3
  480ef4:	0016f913          	andi	s2,a3,1
  480ef8:	007f5f13          	srli	t5,t5,0x7
  480efc:	0019d393          	srli	t2,s3,0x1
  480f00:	00090c63          	beqz	s2,480f18 <calc_func+0x1a4>
  480f04:	ffffa737          	lui	a4,0xffffa
  480f08:	00170293          	addi	t0,a4,1 # ffffa001 <__C_STACK_TOP__+0xffb5a001>
  480f0c:	0053c533          	xor	a0,t2,t0
  480f10:	01051413          	slli	s0,a0,0x10
  480f14:	01045393          	srli	t2,s0,0x10
  480f18:	0013fb93          	andi	s7,t2,1
  480f1c:	0013df93          	srli	t6,t2,0x1
  480f20:	01eb8c63          	beq	s7,t5,480f38 <calc_func+0x1c4>
  480f24:	ffffaab7          	lui	s5,0xffffa
  480f28:	001a8b13          	addi	s6,s5,1 # ffffa001 <__C_STACK_TOP__+0xffb5a001>
  480f2c:	016fc0b3          	xor	ra,t6,s6
  480f30:	01009c13          	slli	s8,ra,0x10
  480f34:	010c5f93          	srli	t6,s8,0x10
  480f38:	008ddd93          	srli	s11,s11,0x8
  480f3c:	01fdc333          	xor	t1,s11,t6
  480f40:	0ffdfa13          	andi	s4,s11,255
  480f44:	00137c93          	andi	s9,t1,1
  480f48:	001a5893          	srli	a7,s4,0x1
  480f4c:	001fde13          	srli	t3,t6,0x1
  480f50:	000c8c63          	beqz	s9,480f68 <calc_func+0x1f4>
  480f54:	ffffa5b7          	lui	a1,0xffffa
  480f58:	00158d13          	addi	s10,a1,1 # ffffa001 <__C_STACK_TOP__+0xffb5a001>
  480f5c:	01ae47b3          	xor	a5,t3,s10
  480f60:	01079e93          	slli	t4,a5,0x10
  480f64:	010ede13          	srli	t3,t4,0x10
  480f68:	011e4633          	xor	a2,t3,a7
  480f6c:	00167493          	andi	s1,a2,1
  480f70:	002a5993          	srli	s3,s4,0x2
  480f74:	001e5293          	srli	t0,t3,0x1
  480f78:	00048c63          	beqz	s1,480f90 <calc_func+0x21c>
  480f7c:	ffffa6b7          	lui	a3,0xffffa
  480f80:	00168913          	addi	s2,a3,1 # ffffa001 <__C_STACK_TOP__+0xffb5a001>
  480f84:	0122cf33          	xor	t5,t0,s2
  480f88:	010f1713          	slli	a4,t5,0x10
  480f8c:	01075293          	srli	t0,a4,0x10
  480f90:	0132c533          	xor	a0,t0,s3
  480f94:	00157413          	andi	s0,a0,1
  480f98:	003a5393          	srli	t2,s4,0x3
  480f9c:	0012dc13          	srli	s8,t0,0x1
  480fa0:	00040c63          	beqz	s0,480fb8 <calc_func+0x244>
  480fa4:	ffffabb7          	lui	s7,0xffffa
  480fa8:	001b8a93          	addi	s5,s7,1 # ffffa001 <__C_STACK_TOP__+0xffb5a001>
  480fac:	015c4b33          	xor	s6,s8,s5
  480fb0:	010b1093          	slli	ra,s6,0x10
  480fb4:	0100dc13          	srli	s8,ra,0x10
  480fb8:	0183cfb3          	xor	t6,t2,s8
  480fbc:	001ffd93          	andi	s11,t6,1
  480fc0:	004a5313          	srli	t1,s4,0x4
  480fc4:	001c5793          	srli	a5,s8,0x1
  480fc8:	000d8c63          	beqz	s11,480fe0 <calc_func+0x26c>
  480fcc:	ffffacb7          	lui	s9,0xffffa
  480fd0:	001c8893          	addi	a7,s9,1 # ffffa001 <__C_STACK_TOP__+0xffb5a001>
  480fd4:	0117c5b3          	xor	a1,a5,a7
  480fd8:	01059d13          	slli	s10,a1,0x10
  480fdc:	010d5793          	srli	a5,s10,0x10
  480fe0:	00f34eb3          	xor	t4,t1,a5
  480fe4:	001efe13          	andi	t3,t4,1
  480fe8:	005a5493          	srli	s1,s4,0x5
  480fec:	0017df13          	srli	t5,a5,0x1
  480ff0:	000e0c63          	beqz	t3,481008 <calc_func+0x294>
  480ff4:	ffffa637          	lui	a2,0xffffa
  480ff8:	00160993          	addi	s3,a2,1 # ffffa001 <__C_STACK_TOP__+0xffb5a001>
  480ffc:	013f46b3          	xor	a3,t5,s3
  481000:	01069913          	slli	s2,a3,0x10
  481004:	01095f13          	srli	t5,s2,0x10
  481008:	01e4c733          	xor	a4,s1,t5
  48100c:	00177293          	andi	t0,a4,1
  481010:	006a5513          	srli	a0,s4,0x6
  481014:	001f5b13          	srli	s6,t5,0x1
  481018:	00028c63          	beqz	t0,481030 <calc_func+0x2bc>
  48101c:	ffffa437          	lui	s0,0xffffa
  481020:	00140393          	addi	t2,s0,1 # ffffa001 <__C_STACK_TOP__+0xffb5a001>
  481024:	007b4bb3          	xor	s7,s6,t2
  481028:	010b9a93          	slli	s5,s7,0x10
  48102c:	010adb13          	srli	s6,s5,0x10
  481030:	00ab40b3          	xor	ra,s6,a0
  481034:	0010fc13          	andi	s8,ra,1
  481038:	007a5a13          	srli	s4,s4,0x7
  48103c:	001b5893          	srli	a7,s6,0x1
  481040:	000c0c63          	beqz	s8,481058 <calc_func+0x2e4>
  481044:	ffffafb7          	lui	t6,0xffffa
  481048:	001f8d93          	addi	s11,t6,1 # ffffa001 <__C_STACK_TOP__+0xffb5a001>
  48104c:	01b8c333          	xor	t1,a7,s11
  481050:	01031c93          	slli	s9,t1,0x10
  481054:	010cd893          	srli	a7,s9,0x10
  481058:	0018f593          	andi	a1,a7,1
  48105c:	0018d493          	srli	s1,a7,0x1
  481060:	01458c63          	beq	a1,s4,481078 <calc_func+0x304>
  481064:	ffffad37          	lui	s10,0xffffa
  481068:	001d0e93          	addi	t4,s10,1 # ffffa001 <__C_STACK_TOP__+0xffb5a001>
  48106c:	01d4c7b3          	xor	a5,s1,t4
  481070:	01079e13          	slli	t3,a5,0x10
  481074:	010e5493          	srli	s1,t3,0x10
  481078:	00012603          	lw	a2,0(sp)
  48107c:	00812683          	lw	a3,8(sp)
  481080:	01412f03          	lw	t5,20(sp)
  481084:	f0067993          	andi	s3,a2,-256
  481088:	07f87513          	andi	a0,a6,127
  48108c:	0809e813          	ori	a6,s3,128
  481090:	02969c23          	sh	s1,56(a3)
  481094:	01056933          	or	s2,a0,a6
  481098:	012f1023          	sh	s2,0(t5)
  48109c:	0080006f          	j	4810a4 <calc_func+0x330>
  4810a0:	07f77513          	andi	a0,a4,127
  4810a4:	0bc12083          	lw	ra,188(sp)
  4810a8:	0b812403          	lw	s0,184(sp)
  4810ac:	0b412483          	lw	s1,180(sp)
  4810b0:	0b012903          	lw	s2,176(sp)
  4810b4:	0ac12983          	lw	s3,172(sp)
  4810b8:	0a812a03          	lw	s4,168(sp)
  4810bc:	0a412a83          	lw	s5,164(sp)
  4810c0:	0a012b03          	lw	s6,160(sp)
  4810c4:	09c12b83          	lw	s7,156(sp)
  4810c8:	09812c03          	lw	s8,152(sp)
  4810cc:	09412c83          	lw	s9,148(sp)
  4810d0:	09012d03          	lw	s10,144(sp)
  4810d4:	08c12d83          	lw	s11,140(sp)
  4810d8:	0c010113          	addi	sp,sp,192
  4810dc:	00008067          	ret
  4810e0:	00058513          	mv	a0,a1
  4810e4:	0285ad03          	lw	s10,40(a1)
  4810e8:	02c52703          	lw	a4,44(a0)
  4810ec:	0345a583          	lw	a1,52(a1)
  4810f0:	03052603          	lw	a2,48(a0)
  4810f4:	fffff9b7          	lui	s3,0xfffff
  4810f8:	01069b13          	slli	s6,a3,0x10
  4810fc:	00b12823          	sw	a1,16(sp)
  481100:	00e12c23          	sw	a4,24(sp)
  481104:	00c12e23          	sw	a2,28(sp)
  481108:	0136e9b3          	or	s3,a3,s3
  48110c:	010b5b13          	srli	s6,s6,0x10
  481110:	000d1463          	bnez	s10,481118 <calc_func+0x3a4>
  481114:	2a80306f          	j	4843bc <calc_func+0x3648>
  481118:	001d1593          	slli	a1,s10,0x1
  48111c:	00070793          	mv	a5,a4
  481120:	00000813          	li	a6,0
  481124:	ffe58893          	addi	a7,a1,-2
  481128:	0018d913          	srli	s2,a7,0x1
  48112c:	00190a13          	addi	s4,s2,1
  481130:	007a7a93          	andi	s5,s4,7
  481134:	00b70bb3          	add	s7,a4,a1
  481138:	0a0a8463          	beqz	s5,4811e0 <calc_func+0x46c>
  48113c:	00100c13          	li	s8,1
  481140:	098a8663          	beq	s5,s8,4811cc <calc_func+0x458>
  481144:	00200c93          	li	s9,2
  481148:	079a8a63          	beq	s5,s9,4811bc <calc_func+0x448>
  48114c:	00300d93          	li	s11,3
  481150:	05ba8e63          	beq	s5,s11,4811ac <calc_func+0x438>
  481154:	00400e13          	li	t3,4
  481158:	05ca8263          	beq	s5,t3,48119c <calc_func+0x428>
  48115c:	00500e93          	li	t4,5
  481160:	03da8663          	beq	s5,t4,48118c <calc_func+0x418>
  481164:	00600f13          	li	t5,6
  481168:	01ea8a63          	beq	s5,t5,48117c <calc_func+0x408>
  48116c:	00075f83          	lhu	t6,0(a4)
  481170:	00270713          	addi	a4,a4,2
  481174:	01fb00b3          	add	ra,s6,t6
  481178:	fe171f23          	sh	ra,-2(a4)
  48117c:	00075283          	lhu	t0,0(a4)
  481180:	00270713          	addi	a4,a4,2
  481184:	005b0333          	add	t1,s6,t0
  481188:	fe671f23          	sh	t1,-2(a4)
  48118c:	00075383          	lhu	t2,0(a4)
  481190:	00270713          	addi	a4,a4,2
  481194:	007b04b3          	add	s1,s6,t2
  481198:	fe971f23          	sh	s1,-2(a4)
  48119c:	00075503          	lhu	a0,0(a4)
  4811a0:	00270713          	addi	a4,a4,2
  4811a4:	00ab0633          	add	a2,s6,a0
  4811a8:	fec71f23          	sh	a2,-2(a4)
  4811ac:	00075883          	lhu	a7,0(a4)
  4811b0:	00270713          	addi	a4,a4,2
  4811b4:	011b0933          	add	s2,s6,a7
  4811b8:	ff271f23          	sh	s2,-2(a4)
  4811bc:	00075a03          	lhu	s4,0(a4)
  4811c0:	00270713          	addi	a4,a4,2
  4811c4:	014b0ab3          	add	s5,s6,s4
  4811c8:	ff571f23          	sh	s5,-2(a4)
  4811cc:	00075c03          	lhu	s8,0(a4)
  4811d0:	00270713          	addi	a4,a4,2
  4811d4:	018b0cb3          	add	s9,s6,s8
  4811d8:	ff971f23          	sh	s9,-2(a4)
  4811dc:	06eb8663          	beq	s7,a4,481248 <calc_func+0x4d4>
  4811e0:	00075d83          	lhu	s11,0(a4)
  4811e4:	00275f83          	lhu	t6,2(a4)
  4811e8:	00475f03          	lhu	t5,4(a4)
  4811ec:	00675e83          	lhu	t4,6(a4)
  4811f0:	00875e03          	lhu	t3,8(a4)
  4811f4:	00a75083          	lhu	ra,10(a4)
  4811f8:	00c75383          	lhu	t2,12(a4)
  4811fc:	00e75483          	lhu	s1,14(a4)
  481200:	01bb02b3          	add	t0,s6,s11
  481204:	01fb0533          	add	a0,s6,t6
  481208:	01eb0933          	add	s2,s6,t5
  48120c:	01db0a33          	add	s4,s6,t4
  481210:	01cb0ab3          	add	s5,s6,t3
  481214:	001b0333          	add	t1,s6,ra
  481218:	007b08b3          	add	a7,s6,t2
  48121c:	009b0633          	add	a2,s6,s1
  481220:	00571023          	sh	t0,0(a4)
  481224:	00a71123          	sh	a0,2(a4)
  481228:	01271223          	sh	s2,4(a4)
  48122c:	01471323          	sh	s4,6(a4)
  481230:	01571423          	sh	s5,8(a4)
  481234:	00671523          	sh	t1,10(a4)
  481238:	01171623          	sh	a7,12(a4)
  48123c:	00c71723          	sh	a2,14(a4)
  481240:	01070713          	addi	a4,a4,16
  481244:	f8eb9ee3          	bne	s7,a4,4811e0 <calc_func+0x46c>
  481248:	00180813          	addi	a6,a6,1
  48124c:	000b8713          	mv	a4,s7
  481250:	ed0d1ae3          	bne	s10,a6,481124 <calc_func+0x3b0>
  481254:	01012303          	lw	t1,16(sp)
  481258:	002d1613          	slli	a2,s10,0x2
  48125c:	00000513          	li	a0,0
  481260:	ffe58b93          	addi	s7,a1,-2
  481264:	001bdc13          	srli	s8,s7,0x1
  481268:	001c0713          	addi	a4,s8,1
  48126c:	00777c93          	andi	s9,a4,7
  481270:	00f58db3          	add	s11,a1,a5
  481274:	00030713          	mv	a4,t1
  481278:	0c0c8263          	beqz	s9,48133c <calc_func+0x5c8>
  48127c:	00100f93          	li	t6,1
  481280:	0bfc8263          	beq	s9,t6,481324 <calc_func+0x5b0>
  481284:	00200f13          	li	t5,2
  481288:	09ec8463          	beq	s9,t5,481310 <calc_func+0x59c>
  48128c:	00300e93          	li	t4,3
  481290:	07dc8663          	beq	s9,t4,4812fc <calc_func+0x588>
  481294:	00400e13          	li	t3,4
  481298:	05cc8863          	beq	s9,t3,4812e8 <calc_func+0x574>
  48129c:	00500093          	li	ra,5
  4812a0:	021c8a63          	beq	s9,ra,4812d4 <calc_func+0x560>
  4812a4:	00600393          	li	t2,6
  4812a8:	007c8c63          	beq	s9,t2,4812c0 <calc_func+0x54c>
  4812ac:	00079483          	lh	s1,0(a5)
  4812b0:	00430713          	addi	a4,t1,4
  4812b4:	00278793          	addi	a5,a5,2
  4812b8:	02d482b3          	mul	t0,s1,a3
  4812bc:	00532023          	sw	t0,0(t1)
  4812c0:	00079903          	lh	s2,0(a5)
  4812c4:	00470713          	addi	a4,a4,4
  4812c8:	00278793          	addi	a5,a5,2
  4812cc:	02d90a33          	mul	s4,s2,a3
  4812d0:	ff472e23          	sw	s4,-4(a4)
  4812d4:	00079a83          	lh	s5,0(a5)
  4812d8:	00470713          	addi	a4,a4,4
  4812dc:	00278793          	addi	a5,a5,2
  4812e0:	02da88b3          	mul	a7,s5,a3
  4812e4:	ff172e23          	sw	a7,-4(a4)
  4812e8:	00079b83          	lh	s7,0(a5)
  4812ec:	00470713          	addi	a4,a4,4
  4812f0:	00278793          	addi	a5,a5,2
  4812f4:	02db8c33          	mul	s8,s7,a3
  4812f8:	ff872e23          	sw	s8,-4(a4)
  4812fc:	00079c83          	lh	s9,0(a5)
  481300:	00470713          	addi	a4,a4,4
  481304:	00278793          	addi	a5,a5,2
  481308:	02dc8fb3          	mul	t6,s9,a3
  48130c:	fff72e23          	sw	t6,-4(a4)
  481310:	00079f03          	lh	t5,0(a5)
  481314:	00470713          	addi	a4,a4,4
  481318:	00278793          	addi	a5,a5,2
  48131c:	02df0eb3          	mul	t4,t5,a3
  481320:	ffd72e23          	sw	t4,-4(a4)
  481324:	00079e03          	lh	t3,0(a5)
  481328:	00470713          	addi	a4,a4,4
  48132c:	00278793          	addi	a5,a5,2
  481330:	02de00b3          	mul	ra,t3,a3
  481334:	fe172e23          	sw	ra,-4(a4)
  481338:	06fd8863          	beq	s11,a5,4813a8 <calc_func+0x634>
  48133c:	00079903          	lh	s2,0(a5)
  481340:	00279483          	lh	s1,2(a5)
  481344:	00479383          	lh	t2,4(a5)
  481348:	00679283          	lh	t0,6(a5)
  48134c:	00879a03          	lh	s4,8(a5)
  481350:	00a79a83          	lh	s5,10(a5)
  481354:	00c79b83          	lh	s7,12(a5)
  481358:	00e79883          	lh	a7,14(a5)
  48135c:	02d90c33          	mul	s8,s2,a3
  481360:	02070713          	addi	a4,a4,32
  481364:	01078793          	addi	a5,a5,16
  481368:	02d48cb3          	mul	s9,s1,a3
  48136c:	ff872023          	sw	s8,-32(a4)
  481370:	02d38fb3          	mul	t6,t2,a3
  481374:	ff972223          	sw	s9,-28(a4)
  481378:	02d28f33          	mul	t5,t0,a3
  48137c:	fff72423          	sw	t6,-24(a4)
  481380:	02da0eb3          	mul	t4,s4,a3
  481384:	ffe72623          	sw	t5,-20(a4)
  481388:	02da8e33          	mul	t3,s5,a3
  48138c:	ffd72823          	sw	t4,-16(a4)
  481390:	02db80b3          	mul	ra,s7,a3
  481394:	ffc72a23          	sw	t3,-12(a4)
  481398:	02d88933          	mul	s2,a7,a3
  48139c:	fe172c23          	sw	ra,-8(a4)
  4813a0:	ff272e23          	sw	s2,-4(a4)
  4813a4:	f8fd9ce3          	bne	s11,a5,48133c <calc_func+0x5c8>
  4813a8:	00150513          	addi	a0,a0,1
  4813ac:	00c30333          	add	t1,t1,a2
  4813b0:	000d8793          	mv	a5,s11
  4813b4:	eaa816e3          	bne	a6,a0,481260 <calc_func+0x4ec>
  4813b8:	01012783          	lw	a5,16(sp)
  4813bc:	40a00db3          	neg	s11,a0
  4813c0:	002d9493          	slli	s1,s11,0x2
  4813c4:	00c78633          	add	a2,a5,a2
  4813c8:	00000f93          	li	t6,0
  4813cc:	00000e13          	li	t3,0
  4813d0:	00000e93          	li	t4,0
  4813d4:	00000593          	li	a1,0
  4813d8:	003d9813          	slli	a6,s11,0x3
  4813dc:	00c48733          	add	a4,s1,a2
  4813e0:	40e606b3          	sub	a3,a2,a4
  4813e4:	ffc68393          	addi	t2,a3,-4
  4813e8:	0023d293          	srli	t0,t2,0x2
  4813ec:	00128a13          	addi	s4,t0,1
  4813f0:	007a7a93          	andi	s5,s4,7
  4813f4:	00070693          	mv	a3,a4
  4813f8:	2a0a8463          	beqz	s5,4816a0 <calc_func+0x92c>
  4813fc:	00100b93          	li	s7,1
  481400:	157a8663          	beq	s5,s7,48154c <calc_func+0x7d8>
  481404:	00200893          	li	a7,2
  481408:	111a8a63          	beq	s5,a7,48151c <calc_func+0x7a8>
  48140c:	00300c13          	li	s8,3
  481410:	0d8a8e63          	beq	s5,s8,4814ec <calc_func+0x778>
  481414:	00400c93          	li	s9,4
  481418:	0b9a8263          	beq	s5,s9,4814bc <calc_func+0x748>
  48141c:	00500f13          	li	t5,5
  481420:	07ea8663          	beq	s5,t5,48148c <calc_func+0x718>
  481424:	00600093          	li	ra,6
  481428:	021a8a63          	beq	s5,ra,48145c <calc_func+0x6e8>
  48142c:	00072903          	lw	s2,0(a4)
  481430:	010f9f93          	slli	t6,t6,0x10
  481434:	010fd313          	srli	t1,t6,0x10
  481438:	012e8eb3          	add	t4,t4,s2
  48143c:	01d9c463          	blt	s3,t4,481444 <calc_func+0x6d0>
  481440:	7550206f          	j	484394 <calc_func+0x3620>
  481444:	00a30e93          	addi	t4,t1,10
  481448:	010e9693          	slli	a3,t4,0x10
  48144c:	4106df93          	srai	t6,a3,0x10
  481450:	00000e93          	li	t4,0
  481454:	00470693          	addi	a3,a4,4
  481458:	00090e13          	mv	t3,s2
  48145c:	0006a383          	lw	t2,0(a3)
  481460:	010f9293          	slli	t0,t6,0x10
  481464:	0102da13          	srli	s4,t0,0x10
  481468:	007e8eb3          	add	t4,t4,t2
  48146c:	01d9c463          	blt	s3,t4,481474 <calc_func+0x700>
  481470:	6c10206f          	j	484330 <calc_func+0x35bc>
  481474:	00aa0c13          	addi	s8,s4,10
  481478:	010c1c93          	slli	s9,s8,0x10
  48147c:	410cdf93          	srai	t6,s9,0x10
  481480:	00000e93          	li	t4,0
  481484:	00468693          	addi	a3,a3,4
  481488:	00038e13          	mv	t3,t2
  48148c:	0006af03          	lw	t5,0(a3)
  481490:	010f9093          	slli	ra,t6,0x10
  481494:	0100d913          	srli	s2,ra,0x10
  481498:	01ee8eb3          	add	t4,t4,t5
  48149c:	01d9c463          	blt	s3,t4,4814a4 <calc_func+0x730>
  4814a0:	6590206f          	j	4842f8 <calc_func+0x3584>
  4814a4:	00a90d93          	addi	s11,s2,10
  4814a8:	010d9793          	slli	a5,s11,0x10
  4814ac:	4107df93          	srai	t6,a5,0x10
  4814b0:	00000e93          	li	t4,0
  4814b4:	00468693          	addi	a3,a3,4
  4814b8:	000f0e13          	mv	t3,t5
  4814bc:	0006a383          	lw	t2,0(a3)
  4814c0:	010f9293          	slli	t0,t6,0x10
  4814c4:	0102da13          	srli	s4,t0,0x10
  4814c8:	007e8eb3          	add	t4,t4,t2
  4814cc:	01d9c463          	blt	s3,t4,4814d4 <calc_func+0x760>
  4814d0:	59d0206f          	j	48426c <calc_func+0x34f8>
  4814d4:	00aa0e93          	addi	t4,s4,10
  4814d8:	010e9c13          	slli	s8,t4,0x10
  4814dc:	410c5f93          	srai	t6,s8,0x10
  4814e0:	00000e93          	li	t4,0
  4814e4:	00468693          	addi	a3,a3,4
  4814e8:	00038e13          	mv	t3,t2
  4814ec:	0006ac83          	lw	s9,0(a3)
  4814f0:	010f9f13          	slli	t5,t6,0x10
  4814f4:	010f5093          	srli	ra,t5,0x10
  4814f8:	019e8eb3          	add	t4,t4,s9
  4814fc:	01d9c463          	blt	s3,t4,481504 <calc_func+0x790>
  481500:	5590206f          	j	484258 <calc_func+0x34e4>
  481504:	00a08e13          	addi	t3,ra,10
  481508:	010e1d93          	slli	s11,t3,0x10
  48150c:	410ddf93          	srai	t6,s11,0x10
  481510:	00000e93          	li	t4,0
  481514:	00468693          	addi	a3,a3,4
  481518:	000c8e13          	mv	t3,s9
  48151c:	0006a783          	lw	a5,0(a3)
  481520:	010f9393          	slli	t2,t6,0x10
  481524:	0103d293          	srli	t0,t2,0x10
  481528:	00fe8eb3          	add	t4,t4,a5
  48152c:	01d9c463          	blt	s3,t4,481534 <calc_func+0x7c0>
  481530:	4d90206f          	j	484208 <calc_func+0x3494>
  481534:	00a28893          	addi	a7,t0,10
  481538:	01089e93          	slli	t4,a7,0x10
  48153c:	410edf93          	srai	t6,t4,0x10
  481540:	00000e93          	li	t4,0
  481544:	00468693          	addi	a3,a3,4
  481548:	00078e13          	mv	t3,a5
  48154c:	0006a283          	lw	t0,0(a3)
  481550:	010f9c13          	slli	s8,t6,0x10
  481554:	010c5c93          	srli	s9,s8,0x10
  481558:	005e8eb3          	add	t4,t4,t0
  48155c:	01d9c463          	blt	s3,t4,481564 <calc_func+0x7f0>
  481560:	4450206f          	j	4841a4 <calc_func+0x3430>
  481564:	00ac8313          	addi	t1,s9,10
  481568:	01031e13          	slli	t3,t1,0x10
  48156c:	410e5f93          	srai	t6,t3,0x10
  481570:	00000e93          	li	t4,0
  481574:	00468693          	addi	a3,a3,4
  481578:	00028e13          	mv	t3,t0
  48157c:	12d61263          	bne	a2,a3,4816a0 <calc_func+0x92c>
  481580:	4290006f          	j	4821a8 <calc_func+0x1434>
  481584:	01ee27b3          	slt	a5,t3,t5
  481588:	0046ae83          	lw	t4,4(a3)
  48158c:	00f382b3          	add	t0,t2,a5
  481590:	01029a13          	slli	s4,t0,0x10
  481594:	410a5893          	srai	a7,s4,0x10
  481598:	01089c93          	slli	s9,a7,0x10
  48159c:	01dc0933          	add	s2,s8,t4
  4815a0:	00468693          	addi	a3,a3,4
  4815a4:	010cd093          	srli	ra,s9,0x10
  4815a8:	1329da63          	ble	s2,s3,4816dc <calc_func+0x968>
  4815ac:	00a08d93          	addi	s11,ra,10
  4815b0:	0046a283          	lw	t0,4(a3)
  4815b4:	010d9393          	slli	t2,s11,0x10
  4815b8:	4103df13          	srai	t5,t2,0x10
  4815bc:	00000913          	li	s2,0
  4815c0:	010f1793          	slli	a5,t5,0x10
  4815c4:	00590ab3          	add	s5,s2,t0
  4815c8:	0107da13          	srli	s4,a5,0x10
  4815cc:	1359da63          	ble	s5,s3,481700 <calc_func+0x98c>
  4815d0:	00aa0e93          	addi	t4,s4,10
  4815d4:	0086a903          	lw	s2,8(a3)
  4815d8:	010e9093          	slli	ra,t4,0x10
  4815dc:	4100dc93          	srai	s9,ra,0x10
  4815e0:	00000a93          	li	s5,0
  4815e4:	010c9f93          	slli	t6,s9,0x10
  4815e8:	012a8333          	add	t1,s5,s2
  4815ec:	010fdf13          	srli	t5,t6,0x10
  4815f0:	1269da63          	ble	t1,s3,481724 <calc_func+0x9b0>
  4815f4:	00af0793          	addi	a5,t5,10
  4815f8:	00c6aa83          	lw	s5,12(a3)
  4815fc:	01079a13          	slli	s4,a5,0x10
  481600:	410a5293          	srai	t0,s4,0x10
  481604:	00000313          	li	t1,0
  481608:	01029b93          	slli	s7,t0,0x10
  48160c:	01530c33          	add	s8,t1,s5
  481610:	010bd893          	srli	a7,s7,0x10
  481614:	1389da63          	ble	s8,s3,481748 <calc_func+0x9d4>
  481618:	00a88f93          	addi	t6,a7,10
  48161c:	0106ad83          	lw	s11,16(a3)
  481620:	010f9f13          	slli	t5,t6,0x10
  481624:	410f5913          	srai	s2,t5,0x10
  481628:	00000c13          	li	s8,0
  48162c:	01091313          	slli	t1,s2,0x10
  481630:	01bc02b3          	add	t0,s8,s11
  481634:	01035393          	srli	t2,t1,0x10
  481638:	1259da63          	ble	t0,s3,48176c <calc_func+0x9f8>
  48163c:	00a38b93          	addi	s7,t2,10
  481640:	0146ac03          	lw	s8,20(a3)
  481644:	010b9893          	slli	a7,s7,0x10
  481648:	4108da93          	srai	s5,a7,0x10
  48164c:	00000293          	li	t0,0
  481650:	010a9c93          	slli	s9,s5,0x10
  481654:	01828933          	add	s2,t0,s8
  481658:	010cd093          	srli	ra,s9,0x10
  48165c:	1329da63          	ble	s2,s3,481790 <calc_func+0xa1c>
  481660:	00a08313          	addi	t1,ra,10
  481664:	0186a283          	lw	t0,24(a3)
  481668:	01031393          	slli	t2,t1,0x10
  48166c:	4103dd93          	srai	s11,t2,0x10
  481670:	00000913          	li	s2,0
  481674:	010d9e13          	slli	t3,s11,0x10
  481678:	00590eb3          	add	t4,s2,t0
  48167c:	010e5793          	srli	a5,t3,0x10
  481680:	13d9da63          	ble	t4,s3,4817b4 <calc_func+0xa40>
  481684:	00a78893          	addi	a7,a5,10
  481688:	01089c13          	slli	s8,a7,0x10
  48168c:	410c5f93          	srai	t6,s8,0x10
  481690:	00000e93          	li	t4,0
  481694:	01c68693          	addi	a3,a3,28
  481698:	00028e13          	mv	t3,t0
  48169c:	30d606e3          	beq	a2,a3,4821a8 <calc_func+0x1434>
  4816a0:	0006af03          	lw	t5,0(a3)
  4816a4:	010f9d93          	slli	s11,t6,0x10
  4816a8:	010dd393          	srli	t2,s11,0x10
  4816ac:	01ee8c33          	add	s8,t4,t5
  4816b0:	ed89dae3          	ble	s8,s3,481584 <calc_func+0x810>
  4816b4:	0046ae83          	lw	t4,4(a3)
  4816b8:	00a38a93          	addi	s5,t2,10
  4816bc:	010a9b93          	slli	s7,s5,0x10
  4816c0:	410bd893          	srai	a7,s7,0x10
  4816c4:	00000c13          	li	s8,0
  4816c8:	01089c93          	slli	s9,a7,0x10
  4816cc:	01dc0933          	add	s2,s8,t4
  4816d0:	00468693          	addi	a3,a3,4
  4816d4:	010cd093          	srli	ra,s9,0x10
  4816d8:	ed29cae3          	blt	s3,s2,4815ac <calc_func+0x838>
  4816dc:	01df2fb3          	slt	t6,t5,t4
  4816e0:	01f08333          	add	t1,ra,t6
  4816e4:	0046a283          	lw	t0,4(a3)
  4816e8:	01031e13          	slli	t3,t1,0x10
  4816ec:	410e5f13          	srai	t5,t3,0x10
  4816f0:	010f1793          	slli	a5,t5,0x10
  4816f4:	00590ab3          	add	s5,s2,t0
  4816f8:	0107da13          	srli	s4,a5,0x10
  4816fc:	ed59cae3          	blt	s3,s5,4815d0 <calc_func+0x85c>
  481700:	005eabb3          	slt	s7,t4,t0
  481704:	017a08b3          	add	a7,s4,s7
  481708:	0086a903          	lw	s2,8(a3)
  48170c:	01089c13          	slli	s8,a7,0x10
  481710:	410c5c93          	srai	s9,s8,0x10
  481714:	010c9f93          	slli	t6,s9,0x10
  481718:	012a8333          	add	t1,s5,s2
  48171c:	010fdf13          	srli	t5,t6,0x10
  481720:	ec69cae3          	blt	s3,t1,4815f4 <calc_func+0x880>
  481724:	0122ae33          	slt	t3,t0,s2
  481728:	01cf0db3          	add	s11,t5,t3
  48172c:	00c6aa83          	lw	s5,12(a3)
  481730:	010d9393          	slli	t2,s11,0x10
  481734:	4103d293          	srai	t0,t2,0x10
  481738:	01029b93          	slli	s7,t0,0x10
  48173c:	01530c33          	add	s8,t1,s5
  481740:	010bd893          	srli	a7,s7,0x10
  481744:	ed89cae3          	blt	s3,s8,481618 <calc_func+0x8a4>
  481748:	01592cb3          	slt	s9,s2,s5
  48174c:	01988eb3          	add	t4,a7,s9
  481750:	0106ad83          	lw	s11,16(a3)
  481754:	010e9093          	slli	ra,t4,0x10
  481758:	4100d913          	srai	s2,ra,0x10
  48175c:	01091313          	slli	t1,s2,0x10
  481760:	01bc02b3          	add	t0,s8,s11
  481764:	01035393          	srli	t2,t1,0x10
  481768:	ec59cae3          	blt	s3,t0,48163c <calc_func+0x8c8>
  48176c:	01baae33          	slt	t3,s5,s11
  481770:	01c387b3          	add	a5,t2,t3
  481774:	0146ac03          	lw	s8,20(a3)
  481778:	01079a13          	slli	s4,a5,0x10
  48177c:	410a5a93          	srai	s5,s4,0x10
  481780:	010a9c93          	slli	s9,s5,0x10
  481784:	01828933          	add	s2,t0,s8
  481788:	010cd093          	srli	ra,s9,0x10
  48178c:	ed29cae3          	blt	s3,s2,481660 <calc_func+0x8ec>
  481790:	018daeb3          	slt	t4,s11,s8
  481794:	01d08fb3          	add	t6,ra,t4
  481798:	0186a283          	lw	t0,24(a3)
  48179c:	010f9f13          	slli	t5,t6,0x10
  4817a0:	410f5d93          	srai	s11,t5,0x10
  4817a4:	010d9e13          	slli	t3,s11,0x10
  4817a8:	00590eb3          	add	t4,s2,t0
  4817ac:	010e5793          	srli	a5,t3,0x10
  4817b0:	edd9cae3          	blt	s3,t4,481684 <calc_func+0x910>
  4817b4:	005c2a33          	slt	s4,s8,t0
  4817b8:	01478ab3          	add	s5,a5,s4
  4817bc:	010a9b93          	slli	s7,s5,0x10
  4817c0:	410bdf93          	srai	t6,s7,0x10
  4817c4:	ed1ff06f          	j	481694 <calc_func+0x920>
  4817c8:	02200e13          	li	t3,34
  4817cc:	00068a93          	mv	s5,a3
  4817d0:	01c6d463          	ble	t3,a3,4817d8 <calc_func+0xa64>
  4817d4:	02200a93          	li	s5,34
  4817d8:	00812803          	lw	a6,8(sp)
  4817dc:	06012023          	sw	zero,96(sp)
  4817e0:	06010493          	addi	s1,sp,96
  4817e4:	01482a03          	lw	s4,20(a6)
  4817e8:	0004a223          	sw	zero,4(s1)
  4817ec:	0004a423          	sw	zero,8(s1)
  4817f0:	03412e23          	sw	s4,60(sp)
  4817f4:	0004a623          	sw	zero,12(s1)
  4817f8:	0004a823          	sw	zero,16(s1)
  4817fc:	0004aa23          	sw	zero,20(s1)
  481800:	0004ac23          	sw	zero,24(s1)
  481804:	0004ae23          	sw	zero,28(s1)
  481808:	000a4303          	lbu	t1,0(s4)
  48180c:	010a9d13          	slli	s10,s5,0x10
  481810:	04012023          	sw	zero,64(sp)
  481814:	04012223          	sw	zero,68(sp)
  481818:	04012423          	sw	zero,72(sp)
  48181c:	04012623          	sw	zero,76(sp)
  481820:	04012823          	sw	zero,80(sp)
  481824:	04012a23          	sw	zero,84(sp)
  481828:	04012c23          	sw	zero,88(sp)
  48182c:	04012e23          	sw	zero,92(sp)
  481830:	410d5913          	srai	s2,s10,0x10
  481834:	01882b03          	lw	s6,24(a6)
  481838:	00081a83          	lh	s5,0(a6)
  48183c:	00281983          	lh	s3,2(a6)
  481840:	02030a63          	beqz	t1,481874 <calc_func+0xb00>
  481844:	00048593          	mv	a1,s1
  481848:	03c10513          	addi	a0,sp,60
  48184c:	9f0ff0ef          	jal	ra,480a3c <core_state_transition>
  481850:	00251e93          	slli	t4,a0,0x2
  481854:	08010593          	addi	a1,sp,128
  481858:	01d58f33          	add	t5,a1,t4
  48185c:	03c12383          	lw	t2,60(sp)
  481860:	fc0f2d83          	lw	s11,-64(t5)
  481864:	0003c503          	lbu	a0,0(t2)
  481868:	001d8693          	addi	a3,s11,1
  48186c:	fcdf2023          	sw	a3,-64(t5)
  481870:	fc051ae3          	bnez	a0,481844 <calc_func+0xad0>
  481874:	03412e23          	sw	s4,60(sp)
  481878:	016a0b33          	add	s6,s4,s6
  48187c:	016a6463          	bltu	s4,s6,481884 <calc_func+0xb10>
  481880:	36d0206f          	j	4843ec <calc_func+0x3678>
  481884:	000a0513          	mv	a0,s4
  481888:	000a0c93          	mv	s9,s4
  48188c:	02c00293          	li	t0,44
  481890:	01c0006f          	j	4818ac <calc_func+0xb38>
  481894:	001c8023          	sb	ra,0(s9)
  481898:	03c12783          	lw	a5,60(sp)
  48189c:	01278cb3          	add	s9,a5,s2
  4818a0:	036cf063          	bleu	s6,s9,4818c0 <calc_func+0xb4c>
  4818a4:	03912e23          	sw	s9,60(sp)
  4818a8:	000c8513          	mv	a0,s9
  4818ac:	000ccb83          	lbu	s7,0(s9)
  4818b0:	015bc0b3          	xor	ra,s7,s5
  4818b4:	fe5b90e3          	bne	s7,t0,481894 <calc_func+0xb20>
  4818b8:	01250cb3          	add	s9,a0,s2
  4818bc:	ff6ce4e3          	bltu	s9,s6,4818a4 <calc_func+0xb30>
  4818c0:	03412e23          	sw	s4,60(sp)
  4818c4:	000a4c03          	lbu	s8,0(s4)
  4818c8:	020c0e63          	beqz	s8,481904 <calc_func+0xb90>
  4818cc:	00048593          	mv	a1,s1
  4818d0:	03c10513          	addi	a0,sp,60
  4818d4:	968ff0ef          	jal	ra,480a3c <core_state_transition>
  4818d8:	00251f93          	slli	t6,a0,0x2
  4818dc:	08010893          	addi	a7,sp,128
  4818e0:	01f88633          	add	a2,a7,t6
  4818e4:	03c12703          	lw	a4,60(sp)
  4818e8:	fc062e03          	lw	t3,-64(a2)
  4818ec:	00074a83          	lbu	s5,0(a4)
  4818f0:	001e0813          	addi	a6,t3,1
  4818f4:	fd062023          	sw	a6,-64(a2)
  4818f8:	fc0a9ae3          	bnez	s5,4818cc <calc_func+0xb58>
  4818fc:	03412e23          	sw	s4,60(sp)
  481900:	056a7463          	bleu	s6,s4,481948 <calc_func+0xbd4>
  481904:	000a0e93          	mv	t4,s4
  481908:	000ec303          	lbu	t1,0(t4)
  48190c:	02c00713          	li	a4,44
  481910:	01334d33          	xor	s10,t1,s3
  481914:	02e30463          	beq	t1,a4,48193c <calc_func+0xbc8>
  481918:	01ae8023          	sb	s10,0(t4)
  48191c:	03c12a03          	lw	s4,60(sp)
  481920:	012a0eb3          	add	t4,s4,s2
  481924:	03d12e23          	sw	t4,60(sp)
  481928:	036ef063          	bleu	s6,t4,481948 <calc_func+0xbd4>
  48192c:	000ec303          	lbu	t1,0(t4)
  481930:	000e8a13          	mv	s4,t4
  481934:	01334d33          	xor	s10,t1,s3
  481938:	fee310e3          	bne	t1,a4,481918 <calc_func+0xba4>
  48193c:	012a0eb3          	add	t4,s4,s2
  481940:	03d12e23          	sw	t4,60(sp)
  481944:	ff6ee4e3          	bltu	t4,s6,48192c <calc_func+0xbb8>
  481948:	ffffa937          	lui	s2,0xffffa
  48194c:	04010693          	addi	a3,sp,64
  481950:	00048613          	mv	a2,s1
  481954:	00190993          	addi	s3,s2,1 # ffffa001 <__C_STACK_TOP__+0xffb5a001>
  481958:	0006ab03          	lw	s6,0(a3)
  48195c:	00145093          	srli	ra,s0,0x1
  481960:	01644433          	xor	s0,s0,s6
  481964:	0ffb7593          	andi	a1,s6,255
  481968:	010b1d93          	slli	s11,s6,0x10
  48196c:	00147f13          	andi	t5,s0,1
  481970:	010dd393          	srli	t2,s11,0x10
  481974:	0015d513          	srli	a0,a1,0x1
  481978:	000f0863          	beqz	t5,481988 <calc_func+0xc14>
  48197c:	0130c2b3          	xor	t0,ra,s3
  481980:	01029b93          	slli	s7,t0,0x10
  481984:	010bd093          	srli	ra,s7,0x10
  481988:	00a0ccb3          	xor	s9,ra,a0
  48198c:	001cfc13          	andi	s8,s9,1
  481990:	0025df93          	srli	t6,a1,0x2
  481994:	0010de13          	srli	t3,ra,0x1
  481998:	000c0863          	beqz	s8,4819a8 <calc_func+0xc34>
  48199c:	013e47b3          	xor	a5,t3,s3
  4819a0:	01079893          	slli	a7,a5,0x10
  4819a4:	0108de13          	srli	t3,a7,0x10
  4819a8:	01cfc733          	xor	a4,t6,t3
  4819ac:	00177a93          	andi	s5,a4,1
  4819b0:	0035d813          	srli	a6,a1,0x3
  4819b4:	001e5e93          	srli	t4,t3,0x1
  4819b8:	000a8863          	beqz	s5,4819c8 <calc_func+0xc54>
  4819bc:	013ec333          	xor	t1,t4,s3
  4819c0:	01031d13          	slli	s10,t1,0x10
  4819c4:	010d5e93          	srli	t4,s10,0x10
  4819c8:	01d84a33          	xor	s4,a6,t4
  4819cc:	001a7913          	andi	s2,s4,1
  4819d0:	0045d413          	srli	s0,a1,0x4
  4819d4:	001ed513          	srli	a0,t4,0x1
  4819d8:	00090863          	beqz	s2,4819e8 <calc_func+0xc74>
  4819dc:	01354f33          	xor	t5,a0,s3
  4819e0:	010f1d93          	slli	s11,t5,0x10
  4819e4:	010dd513          	srli	a0,s11,0x10
  4819e8:	00a442b3          	xor	t0,s0,a0
  4819ec:	0012fb93          	andi	s7,t0,1
  4819f0:	0055d093          	srli	ra,a1,0x5
  4819f4:	00155f93          	srli	t6,a0,0x1
  4819f8:	000b8863          	beqz	s7,481a08 <calc_func+0xc94>
  4819fc:	013fccb3          	xor	s9,t6,s3
  481a00:	010c9c13          	slli	s8,s9,0x10
  481a04:	010c5f93          	srli	t6,s8,0x10
  481a08:	01f0c7b3          	xor	a5,ra,t6
  481a0c:	0017fe13          	andi	t3,a5,1
  481a10:	0065d893          	srli	a7,a1,0x6
  481a14:	001fd313          	srli	t1,t6,0x1
  481a18:	000e0863          	beqz	t3,481a28 <calc_func+0xcb4>
  481a1c:	01334733          	xor	a4,t1,s3
  481a20:	01071a93          	slli	s5,a4,0x10
  481a24:	010ad313          	srli	t1,s5,0x10
  481a28:	0068c833          	xor	a6,a7,t1
  481a2c:	00187d13          	andi	s10,a6,1
  481a30:	0075d593          	srli	a1,a1,0x7
  481a34:	00135913          	srli	s2,t1,0x1
  481a38:	000d0863          	beqz	s10,481a48 <calc_func+0xcd4>
  481a3c:	01394eb3          	xor	t4,s2,s3
  481a40:	010e9a13          	slli	s4,t4,0x10
  481a44:	010a5913          	srli	s2,s4,0x10
  481a48:	00197413          	andi	s0,s2,1
  481a4c:	00195293          	srli	t0,s2,0x1
  481a50:	00b40863          	beq	s0,a1,481a60 <calc_func+0xcec>
  481a54:	0132cf33          	xor	t5,t0,s3
  481a58:	010f1d93          	slli	s11,t5,0x10
  481a5c:	010dd293          	srli	t0,s11,0x10
  481a60:	0083d393          	srli	t2,t2,0x8
  481a64:	0053cbb3          	xor	s7,t2,t0
  481a68:	0ff3f513          	andi	a0,t2,255
  481a6c:	001bf093          	andi	ra,s7,1
  481a70:	00155c93          	srli	s9,a0,0x1
  481a74:	0012d793          	srli	a5,t0,0x1
  481a78:	00008863          	beqz	ra,481a88 <calc_func+0xd14>
  481a7c:	0137cc33          	xor	s8,a5,s3
  481a80:	010c1f93          	slli	t6,s8,0x10
  481a84:	010fd793          	srli	a5,t6,0x10
  481a88:	00fcce33          	xor	t3,s9,a5
  481a8c:	001e7893          	andi	a7,t3,1
  481a90:	00255713          	srli	a4,a0,0x2
  481a94:	0017dd13          	srli	s10,a5,0x1
  481a98:	00088863          	beqz	a7,481aa8 <calc_func+0xd34>
  481a9c:	013d4ab3          	xor	s5,s10,s3
  481aa0:	010a9313          	slli	t1,s5,0x10
  481aa4:	01035d13          	srli	s10,t1,0x10
  481aa8:	01a74833          	xor	a6,a4,s10
  481aac:	00187593          	andi	a1,a6,1
  481ab0:	00355e93          	srli	t4,a0,0x3
  481ab4:	001d5413          	srli	s0,s10,0x1
  481ab8:	00058863          	beqz	a1,481ac8 <calc_func+0xd54>
  481abc:	01344a33          	xor	s4,s0,s3
  481ac0:	010a1913          	slli	s2,s4,0x10
  481ac4:	01095413          	srli	s0,s2,0x10
  481ac8:	008ecf33          	xor	t5,t4,s0
  481acc:	001f7d93          	andi	s11,t5,1
  481ad0:	00455293          	srli	t0,a0,0x4
  481ad4:	00145093          	srli	ra,s0,0x1
  481ad8:	000d8863          	beqz	s11,481ae8 <calc_func+0xd74>
  481adc:	0130c3b3          	xor	t2,ra,s3
  481ae0:	01039b93          	slli	s7,t2,0x10
  481ae4:	010bd093          	srli	ra,s7,0x10
  481ae8:	0012ccb3          	xor	s9,t0,ra
  481aec:	001cfc13          	andi	s8,s9,1
  481af0:	00555f93          	srli	t6,a0,0x5
  481af4:	0010d713          	srli	a4,ra,0x1
  481af8:	000c0863          	beqz	s8,481b08 <calc_func+0xd94>
  481afc:	013747b3          	xor	a5,a4,s3
  481b00:	01079e13          	slli	t3,a5,0x10
  481b04:	010e5713          	srli	a4,t3,0x10
  481b08:	00efc8b3          	xor	a7,t6,a4
  481b0c:	0018fa93          	andi	s5,a7,1
  481b10:	00655313          	srli	t1,a0,0x6
  481b14:	00175593          	srli	a1,a4,0x1
  481b18:	000a8863          	beqz	s5,481b28 <calc_func+0xdb4>
  481b1c:	0135cd33          	xor	s10,a1,s3
  481b20:	010d1813          	slli	a6,s10,0x10
  481b24:	01085593          	srli	a1,a6,0x10
  481b28:	00b34eb3          	xor	t4,t1,a1
  481b2c:	001efa13          	andi	s4,t4,1
  481b30:	00755513          	srli	a0,a0,0x7
  481b34:	0015df13          	srli	t5,a1,0x1
  481b38:	000a0863          	beqz	s4,481b48 <calc_func+0xdd4>
  481b3c:	013f4933          	xor	s2,t5,s3
  481b40:	01091413          	slli	s0,s2,0x10
  481b44:	01045f13          	srli	t5,s0,0x10
  481b48:	001f7d93          	andi	s11,t5,1
  481b4c:	001f5b93          	srli	s7,t5,0x1
  481b50:	00ad8863          	beq	s11,a0,481b60 <calc_func+0xdec>
  481b54:	013bc2b3          	xor	t0,s7,s3
  481b58:	01029393          	slli	t2,t0,0x10
  481b5c:	0103db93          	srli	s7,t2,0x10
  481b60:	010b5b13          	srli	s6,s6,0x10
  481b64:	017b40b3          	xor	ra,s6,s7
  481b68:	0ffb7c93          	andi	s9,s6,255
  481b6c:	010b1f93          	slli	t6,s6,0x10
  481b70:	0010fc13          	andi	s8,ra,1
  481b74:	010fde13          	srli	t3,t6,0x10
  481b78:	001cd713          	srli	a4,s9,0x1
  481b7c:	001bda93          	srli	s5,s7,0x1
  481b80:	000c0863          	beqz	s8,481b90 <calc_func+0xe1c>
  481b84:	013ac7b3          	xor	a5,s5,s3
  481b88:	01079893          	slli	a7,a5,0x10
  481b8c:	0108da93          	srli	s5,a7,0x10
  481b90:	01574333          	xor	t1,a4,s5
  481b94:	00137d13          	andi	s10,t1,1
  481b98:	002cd813          	srli	a6,s9,0x2
  481b9c:	001ada13          	srli	s4,s5,0x1
  481ba0:	000d0863          	beqz	s10,481bb0 <calc_func+0xe3c>
  481ba4:	013a45b3          	xor	a1,s4,s3
  481ba8:	01059e93          	slli	t4,a1,0x10
  481bac:	010eda13          	srli	s4,t4,0x10
  481bb0:	01484533          	xor	a0,a6,s4
  481bb4:	00157913          	andi	s2,a0,1
  481bb8:	003cd413          	srli	s0,s9,0x3
  481bbc:	001a5293          	srli	t0,s4,0x1
  481bc0:	00090863          	beqz	s2,481bd0 <calc_func+0xe5c>
  481bc4:	0132cf33          	xor	t5,t0,s3
  481bc8:	010f1d93          	slli	s11,t5,0x10
  481bcc:	010dd293          	srli	t0,s11,0x10
  481bd0:	005443b3          	xor	t2,s0,t0
  481bd4:	0013fb93          	andi	s7,t2,1
  481bd8:	004cdb13          	srli	s6,s9,0x4
  481bdc:	0012df93          	srli	t6,t0,0x1
  481be0:	000b8863          	beqz	s7,481bf0 <calc_func+0xe7c>
  481be4:	013fc0b3          	xor	ra,t6,s3
  481be8:	01009c13          	slli	s8,ra,0x10
  481bec:	010c5f93          	srli	t6,s8,0x10
  481bf0:	01fb4733          	xor	a4,s6,t6
  481bf4:	00177a93          	andi	s5,a4,1
  481bf8:	005cd893          	srli	a7,s9,0x5
  481bfc:	001fdd13          	srli	s10,t6,0x1
  481c00:	000a8863          	beqz	s5,481c10 <calc_func+0xe9c>
  481c04:	013d47b3          	xor	a5,s10,s3
  481c08:	01079313          	slli	t1,a5,0x10
  481c0c:	01035d13          	srli	s10,t1,0x10
  481c10:	01a8c833          	xor	a6,a7,s10
  481c14:	00187593          	andi	a1,a6,1
  481c18:	006cde93          	srli	t4,s9,0x6
  481c1c:	001d5913          	srli	s2,s10,0x1
  481c20:	00058863          	beqz	a1,481c30 <calc_func+0xebc>
  481c24:	01394a33          	xor	s4,s2,s3
  481c28:	010a1513          	slli	a0,s4,0x10
  481c2c:	01055913          	srli	s2,a0,0x10
  481c30:	012ec433          	xor	s0,t4,s2
  481c34:	00147f13          	andi	t5,s0,1
  481c38:	007cdc93          	srli	s9,s9,0x7
  481c3c:	00195393          	srli	t2,s2,0x1
  481c40:	000f0863          	beqz	t5,481c50 <calc_func+0xedc>
  481c44:	0133cdb3          	xor	s11,t2,s3
  481c48:	010d9293          	slli	t0,s11,0x10
  481c4c:	0102d393          	srli	t2,t0,0x10
  481c50:	0013fb93          	andi	s7,t2,1
  481c54:	0013dc13          	srli	s8,t2,0x1
  481c58:	019b8863          	beq	s7,s9,481c68 <calc_func+0xef4>
  481c5c:	013c4b33          	xor	s6,s8,s3
  481c60:	010b1093          	slli	ra,s6,0x10
  481c64:	0100dc13          	srli	s8,ra,0x10
  481c68:	008e5e13          	srli	t3,t3,0x8
  481c6c:	018e4fb3          	xor	t6,t3,s8
  481c70:	0ffe7713          	andi	a4,t3,255
  481c74:	001ffa93          	andi	s5,t6,1
  481c78:	00175893          	srli	a7,a4,0x1
  481c7c:	001c5d13          	srli	s10,s8,0x1
  481c80:	000a8863          	beqz	s5,481c90 <calc_func+0xf1c>
  481c84:	013d47b3          	xor	a5,s10,s3
  481c88:	01079313          	slli	t1,a5,0x10
  481c8c:	01035d13          	srli	s10,t1,0x10
  481c90:	01a8c833          	xor	a6,a7,s10
  481c94:	00187593          	andi	a1,a6,1
  481c98:	00275e93          	srli	t4,a4,0x2
  481c9c:	001d5913          	srli	s2,s10,0x1
  481ca0:	00058863          	beqz	a1,481cb0 <calc_func+0xf3c>
  481ca4:	01394a33          	xor	s4,s2,s3
  481ca8:	010a1513          	slli	a0,s4,0x10
  481cac:	01055913          	srli	s2,a0,0x10
  481cb0:	012ec433          	xor	s0,t4,s2
  481cb4:	00147f13          	andi	t5,s0,1
  481cb8:	00375c93          	srli	s9,a4,0x3
  481cbc:	00195393          	srli	t2,s2,0x1
  481cc0:	000f0863          	beqz	t5,481cd0 <calc_func+0xf5c>
  481cc4:	0133cdb3          	xor	s11,t2,s3
  481cc8:	010d9293          	slli	t0,s11,0x10
  481ccc:	0102d393          	srli	t2,t0,0x10
  481cd0:	007ccbb3          	xor	s7,s9,t2
  481cd4:	001bfb13          	andi	s6,s7,1
  481cd8:	00475093          	srli	ra,a4,0x4
  481cdc:	0013df93          	srli	t6,t2,0x1
  481ce0:	000b0863          	beqz	s6,481cf0 <calc_func+0xf7c>
  481ce4:	013fcc33          	xor	s8,t6,s3
  481ce8:	010c1e13          	slli	t3,s8,0x10
  481cec:	010e5f93          	srli	t6,t3,0x10
  481cf0:	01f0cab3          	xor	s5,ra,t6
  481cf4:	001af893          	andi	a7,s5,1
  481cf8:	00575313          	srli	t1,a4,0x5
  481cfc:	001fd593          	srli	a1,t6,0x1
  481d00:	00088863          	beqz	a7,481d10 <calc_func+0xf9c>
  481d04:	0135c7b3          	xor	a5,a1,s3
  481d08:	01079d13          	slli	s10,a5,0x10
  481d0c:	010d5593          	srli	a1,s10,0x10
  481d10:	00b34833          	xor	a6,t1,a1
  481d14:	00187e93          	andi	t4,a6,1
  481d18:	00675a13          	srli	s4,a4,0x6
  481d1c:	0015d413          	srli	s0,a1,0x1
  481d20:	000e8863          	beqz	t4,481d30 <calc_func+0xfbc>
  481d24:	01344533          	xor	a0,s0,s3
  481d28:	01051913          	slli	s2,a0,0x10
  481d2c:	01095413          	srli	s0,s2,0x10
  481d30:	008a4f33          	xor	t5,s4,s0
  481d34:	001f7c93          	andi	s9,t5,1
  481d38:	00775713          	srli	a4,a4,0x7
  481d3c:	00145393          	srli	t2,s0,0x1
  481d40:	000c8863          	beqz	s9,481d50 <calc_func+0xfdc>
  481d44:	0133cdb3          	xor	s11,t2,s3
  481d48:	010d9293          	slli	t0,s11,0x10
  481d4c:	0102d393          	srli	t2,t0,0x10
  481d50:	0013fb93          	andi	s7,t2,1
  481d54:	0013dc13          	srli	s8,t2,0x1
  481d58:	00eb8863          	beq	s7,a4,481d68 <calc_func+0xff4>
  481d5c:	013c4b33          	xor	s6,s8,s3
  481d60:	010b1093          	slli	ra,s6,0x10
  481d64:	0100dc13          	srli	s8,ra,0x10
  481d68:	00062e03          	lw	t3,0(a2)
  481d6c:	001c5e93          	srli	t4,s8,0x1
  481d70:	018e4fb3          	xor	t6,t3,s8
  481d74:	0ffe7a93          	andi	s5,t3,255
  481d78:	010e1893          	slli	a7,t3,0x10
  481d7c:	001ff313          	andi	t1,t6,1
  481d80:	0108dd13          	srli	s10,a7,0x10
  481d84:	001ad793          	srli	a5,s5,0x1
  481d88:	00030863          	beqz	t1,481d98 <calc_func+0x1024>
  481d8c:	013ec5b3          	xor	a1,t4,s3
  481d90:	01059813          	slli	a6,a1,0x10
  481d94:	01085e93          	srli	t4,a6,0x10
  481d98:	01d7ca33          	xor	s4,a5,t4
  481d9c:	001a7513          	andi	a0,s4,1
  481da0:	002ad913          	srli	s2,s5,0x2
  481da4:	001edc93          	srli	s9,t4,0x1
  481da8:	00050863          	beqz	a0,481db8 <calc_func+0x1044>
  481dac:	013cc433          	xor	s0,s9,s3
  481db0:	01041f13          	slli	t5,s0,0x10
  481db4:	010f5c93          	srli	s9,t5,0x10
  481db8:	01994733          	xor	a4,s2,s9
  481dbc:	00177d93          	andi	s11,a4,1
  481dc0:	003ad293          	srli	t0,s5,0x3
  481dc4:	001cdb13          	srli	s6,s9,0x1
  481dc8:	000d8863          	beqz	s11,481dd8 <calc_func+0x1064>
  481dcc:	013b43b3          	xor	t2,s6,s3
  481dd0:	01039b93          	slli	s7,t2,0x10
  481dd4:	010bdb13          	srli	s6,s7,0x10
  481dd8:	0162c0b3          	xor	ra,t0,s6
  481ddc:	0010fc13          	andi	s8,ra,1
  481de0:	004adf93          	srli	t6,s5,0x4
  481de4:	001b5593          	srli	a1,s6,0x1
  481de8:	000c0863          	beqz	s8,481df8 <calc_func+0x1084>
  481dec:	0135c333          	xor	t1,a1,s3
  481df0:	01031893          	slli	a7,t1,0x10
  481df4:	0108d593          	srli	a1,a7,0x10
  481df8:	00bfc7b3          	xor	a5,t6,a1
  481dfc:	0017f813          	andi	a6,a5,1
  481e00:	005ade93          	srli	t4,s5,0x5
  481e04:	0015d913          	srli	s2,a1,0x1
  481e08:	00080863          	beqz	a6,481e18 <calc_func+0x10a4>
  481e0c:	01394a33          	xor	s4,s2,s3
  481e10:	010a1513          	slli	a0,s4,0x10
  481e14:	01055913          	srli	s2,a0,0x10
  481e18:	012ec433          	xor	s0,t4,s2
  481e1c:	00147f13          	andi	t5,s0,1
  481e20:	006adc93          	srli	s9,s5,0x6
  481e24:	00195293          	srli	t0,s2,0x1
  481e28:	000f0863          	beqz	t5,481e38 <calc_func+0x10c4>
  481e2c:	0132c733          	xor	a4,t0,s3
  481e30:	01071d93          	slli	s11,a4,0x10
  481e34:	010dd293          	srli	t0,s11,0x10
  481e38:	005cc3b3          	xor	t2,s9,t0
  481e3c:	0013fb93          	andi	s7,t2,1
  481e40:	007ada93          	srli	s5,s5,0x7
  481e44:	0012dc13          	srli	s8,t0,0x1
  481e48:	000b8863          	beqz	s7,481e58 <calc_func+0x10e4>
  481e4c:	013c4b33          	xor	s6,s8,s3
  481e50:	010b1093          	slli	ra,s6,0x10
  481e54:	0100dc13          	srli	s8,ra,0x10
  481e58:	001c7f93          	andi	t6,s8,1
  481e5c:	001c5593          	srli	a1,s8,0x1
  481e60:	015f8863          	beq	t6,s5,481e70 <calc_func+0x10fc>
  481e64:	0135c333          	xor	t1,a1,s3
  481e68:	01031893          	slli	a7,t1,0x10
  481e6c:	0108d593          	srli	a1,a7,0x10
  481e70:	008d5d13          	srli	s10,s10,0x8
  481e74:	00bd4833          	xor	a6,s10,a1
  481e78:	0ffd7793          	andi	a5,s10,255
  481e7c:	00187e93          	andi	t4,a6,1
  481e80:	0017da13          	srli	s4,a5,0x1
  481e84:	0015d413          	srli	s0,a1,0x1
  481e88:	000e8863          	beqz	t4,481e98 <calc_func+0x1124>
  481e8c:	01344533          	xor	a0,s0,s3
  481e90:	01051913          	slli	s2,a0,0x10
  481e94:	01095413          	srli	s0,s2,0x10
  481e98:	008a4f33          	xor	t5,s4,s0
  481e9c:	001f7c93          	andi	s9,t5,1
  481ea0:	0027d713          	srli	a4,a5,0x2
  481ea4:	00145393          	srli	t2,s0,0x1
  481ea8:	000c8863          	beqz	s9,481eb8 <calc_func+0x1144>
  481eac:	0133cdb3          	xor	s11,t2,s3
  481eb0:	010d9293          	slli	t0,s11,0x10
  481eb4:	0102d393          	srli	t2,t0,0x10
  481eb8:	00774bb3          	xor	s7,a4,t2
  481ebc:	001bfa93          	andi	s5,s7,1
  481ec0:	0037db13          	srli	s6,a5,0x3
  481ec4:	0013df93          	srli	t6,t2,0x1
  481ec8:	000a8863          	beqz	s5,481ed8 <calc_func+0x1164>
  481ecc:	013fc0b3          	xor	ra,t6,s3
  481ed0:	01009c13          	slli	s8,ra,0x10
  481ed4:	010c5f93          	srli	t6,s8,0x10
  481ed8:	01fb4333          	xor	t1,s6,t6
  481edc:	00137893          	andi	a7,t1,1
  481ee0:	0047d593          	srli	a1,a5,0x4
  481ee4:	001fde93          	srli	t4,t6,0x1
  481ee8:	00088863          	beqz	a7,481ef8 <calc_func+0x1184>
  481eec:	013ecd33          	xor	s10,t4,s3
  481ef0:	010d1813          	slli	a6,s10,0x10
  481ef4:	01085e93          	srli	t4,a6,0x10
  481ef8:	01d5ca33          	xor	s4,a1,t4
  481efc:	001a7513          	andi	a0,s4,1
  481f00:	0057d913          	srli	s2,a5,0x5
  481f04:	001edc93          	srli	s9,t4,0x1
  481f08:	00050863          	beqz	a0,481f18 <calc_func+0x11a4>
  481f0c:	013cc433          	xor	s0,s9,s3
  481f10:	01041f13          	slli	t5,s0,0x10
  481f14:	010f5c93          	srli	s9,t5,0x10
  481f18:	01994733          	xor	a4,s2,s9
  481f1c:	00177d93          	andi	s11,a4,1
  481f20:	0067d293          	srli	t0,a5,0x6
  481f24:	001cda93          	srli	s5,s9,0x1
  481f28:	000d8863          	beqz	s11,481f38 <calc_func+0x11c4>
  481f2c:	013ac3b3          	xor	t2,s5,s3
  481f30:	01039b93          	slli	s7,t2,0x10
  481f34:	010bda93          	srli	s5,s7,0x10
  481f38:	0152cb33          	xor	s6,t0,s5
  481f3c:	001b7093          	andi	ra,s6,1
  481f40:	0077d793          	srli	a5,a5,0x7
  481f44:	001ad313          	srli	t1,s5,0x1
  481f48:	00008863          	beqz	ra,481f58 <calc_func+0x11e4>
  481f4c:	01334c33          	xor	s8,t1,s3
  481f50:	010c1f93          	slli	t6,s8,0x10
  481f54:	010fd313          	srli	t1,t6,0x10
  481f58:	00137893          	andi	a7,t1,1
  481f5c:	00135e93          	srli	t4,t1,0x1
  481f60:	00f88863          	beq	a7,a5,481f70 <calc_func+0x11fc>
  481f64:	013ec5b3          	xor	a1,t4,s3
  481f68:	01059d13          	slli	s10,a1,0x10
  481f6c:	010d5e93          	srli	t4,s10,0x10
  481f70:	010e5e13          	srli	t3,t3,0x10
  481f74:	01de4833          	xor	a6,t3,t4
  481f78:	0ffe7a13          	andi	s4,t3,255
  481f7c:	010e1913          	slli	s2,t3,0x10
  481f80:	00187513          	andi	a0,a6,1
  481f84:	01095f13          	srli	t5,s2,0x10
  481f88:	001a5c93          	srli	s9,s4,0x1
  481f8c:	001edd93          	srli	s11,t4,0x1
  481f90:	00050863          	beqz	a0,481fa0 <calc_func+0x122c>
  481f94:	013dc433          	xor	s0,s11,s3
  481f98:	01041713          	slli	a4,s0,0x10
  481f9c:	01075d93          	srli	s11,a4,0x10
  481fa0:	01bcc2b3          	xor	t0,s9,s11
  481fa4:	0012f393          	andi	t2,t0,1
  481fa8:	002a5b93          	srli	s7,s4,0x2
  481fac:	001dd093          	srli	ra,s11,0x1
  481fb0:	00038863          	beqz	t2,481fc0 <calc_func+0x124c>
  481fb4:	0130cab3          	xor	s5,ra,s3
  481fb8:	010a9b13          	slli	s6,s5,0x10
  481fbc:	010b5093          	srli	ra,s6,0x10
  481fc0:	001bc7b3          	xor	a5,s7,ra
  481fc4:	0017fc13          	andi	s8,a5,1
  481fc8:	003a5f93          	srli	t6,s4,0x3
  481fcc:	0010d593          	srli	a1,ra,0x1
  481fd0:	000c0863          	beqz	s8,481fe0 <calc_func+0x126c>
  481fd4:	0135c333          	xor	t1,a1,s3
  481fd8:	01031893          	slli	a7,t1,0x10
  481fdc:	0108d593          	srli	a1,a7,0x10
  481fe0:	00bfcd33          	xor	s10,t6,a1
  481fe4:	001d7e93          	andi	t4,s10,1
  481fe8:	004a5e13          	srli	t3,s4,0x4
  481fec:	0015d913          	srli	s2,a1,0x1
  481ff0:	000e8863          	beqz	t4,482000 <calc_func+0x128c>
  481ff4:	01394833          	xor	a6,s2,s3
  481ff8:	01081513          	slli	a0,a6,0x10
  481ffc:	01055913          	srli	s2,a0,0x10
  482000:	012e4cb3          	xor	s9,t3,s2
  482004:	001cf713          	andi	a4,s9,1
  482008:	005a5d93          	srli	s11,s4,0x5
  48200c:	00195393          	srli	t2,s2,0x1
  482010:	00070863          	beqz	a4,482020 <calc_func+0x12ac>
  482014:	0133c433          	xor	s0,t2,s3
  482018:	01041293          	slli	t0,s0,0x10
  48201c:	0102d393          	srli	t2,t0,0x10
  482020:	007dcbb3          	xor	s7,s11,t2
  482024:	001bfa93          	andi	s5,s7,1
  482028:	006a5b13          	srli	s6,s4,0x6
  48202c:	0013dc13          	srli	s8,t2,0x1
  482030:	000a8863          	beqz	s5,482040 <calc_func+0x12cc>
  482034:	013c40b3          	xor	ra,s8,s3
  482038:	01009793          	slli	a5,ra,0x10
  48203c:	0107dc13          	srli	s8,a5,0x10
  482040:	018b4fb3          	xor	t6,s6,s8
  482044:	001ff313          	andi	t1,t6,1
  482048:	007a5a13          	srli	s4,s4,0x7
  48204c:	001c5d13          	srli	s10,s8,0x1
  482050:	00030863          	beqz	t1,482060 <calc_func+0x12ec>
  482054:	013d48b3          	xor	a7,s10,s3
  482058:	01089593          	slli	a1,a7,0x10
  48205c:	0105dd13          	srli	s10,a1,0x10
  482060:	001d7e93          	andi	t4,s10,1
  482064:	001d5913          	srli	s2,s10,0x1
  482068:	014e8863          	beq	t4,s4,482078 <calc_func+0x1304>
  48206c:	01394e33          	xor	t3,s2,s3
  482070:	010e1813          	slli	a6,t3,0x10
  482074:	01085913          	srli	s2,a6,0x10
  482078:	008f5f13          	srli	t5,t5,0x8
  48207c:	012f4533          	xor	a0,t5,s2
  482080:	0fff7c93          	andi	s9,t5,255
  482084:	00157713          	andi	a4,a0,1
  482088:	001cdd93          	srli	s11,s9,0x1
  48208c:	00195393          	srli	t2,s2,0x1
  482090:	00070863          	beqz	a4,4820a0 <calc_func+0x132c>
  482094:	0133c433          	xor	s0,t2,s3
  482098:	01041293          	slli	t0,s0,0x10
  48209c:	0102d393          	srli	t2,t0,0x10
  4820a0:	007dcbb3          	xor	s7,s11,t2
  4820a4:	001bfa93          	andi	s5,s7,1
  4820a8:	002cdb13          	srli	s6,s9,0x2
  4820ac:	0013dc13          	srli	s8,t2,0x1
  4820b0:	000a8863          	beqz	s5,4820c0 <calc_func+0x134c>
  4820b4:	013c40b3          	xor	ra,s8,s3
  4820b8:	01009793          	slli	a5,ra,0x10
  4820bc:	0107dc13          	srli	s8,a5,0x10
  4820c0:	018b4fb3          	xor	t6,s6,s8
  4820c4:	001ff313          	andi	t1,t6,1
  4820c8:	003cda13          	srli	s4,s9,0x3
  4820cc:	001c5d13          	srli	s10,s8,0x1
  4820d0:	00030863          	beqz	t1,4820e0 <calc_func+0x136c>
  4820d4:	013d48b3          	xor	a7,s10,s3
  4820d8:	01089593          	slli	a1,a7,0x10
  4820dc:	0105dd13          	srli	s10,a1,0x10
  4820e0:	01aa4eb3          	xor	t4,s4,s10
  4820e4:	001efe13          	andi	t3,t4,1
  4820e8:	004cd813          	srli	a6,s9,0x4
  4820ec:	001d5713          	srli	a4,s10,0x1
  4820f0:	000e0863          	beqz	t3,482100 <calc_func+0x138c>
  4820f4:	01374933          	xor	s2,a4,s3
  4820f8:	01091f13          	slli	t5,s2,0x10
  4820fc:	010f5713          	srli	a4,t5,0x10
  482100:	00e84533          	xor	a0,a6,a4
  482104:	00157d93          	andi	s11,a0,1
  482108:	005cd293          	srli	t0,s9,0x5
  48210c:	00175b93          	srli	s7,a4,0x1
  482110:	000d8863          	beqz	s11,482120 <calc_func+0x13ac>
  482114:	013bc433          	xor	s0,s7,s3
  482118:	01041393          	slli	t2,s0,0x10
  48211c:	0103db93          	srli	s7,t2,0x10
  482120:	0172cab3          	xor	s5,t0,s7
  482124:	001afb13          	andi	s6,s5,1
  482128:	006cd093          	srli	ra,s9,0x6
  48212c:	001bdf93          	srli	t6,s7,0x1
  482130:	000b0863          	beqz	s6,482140 <calc_func+0x13cc>
  482134:	013fc7b3          	xor	a5,t6,s3
  482138:	01079c13          	slli	s8,a5,0x10
  48213c:	010c5f93          	srli	t6,s8,0x10
  482140:	01f0c333          	xor	t1,ra,t6
  482144:	00137a13          	andi	s4,t1,1
  482148:	007cdc93          	srli	s9,s9,0x7
  48214c:	001fdd13          	srli	s10,t6,0x1
  482150:	000a0863          	beqz	s4,482160 <calc_func+0x13ec>
  482154:	013d48b3          	xor	a7,s10,s3
  482158:	01089593          	slli	a1,a7,0x10
  48215c:	0105dd13          	srli	s10,a1,0x10
  482160:	001d7e93          	andi	t4,s10,1
  482164:	001d5413          	srli	s0,s10,0x1
  482168:	019e8863          	beq	t4,s9,482178 <calc_func+0x1404>
  48216c:	01344e33          	xor	t3,s0,s3
  482170:	010e1813          	slli	a6,t3,0x10
  482174:	01085413          	srli	s0,a6,0x10
  482178:	00468693          	addi	a3,a3,4
  48217c:	00460613          	addi	a2,a2,4
  482180:	fcd49c63          	bne	s1,a3,481958 <calc_func+0xbe4>
  482184:	00812603          	lw	a2,8(sp)
  482188:	01041993          	slli	s3,s0,0x10
  48218c:	4109d813          	srai	a6,s3,0x10
  482190:	03e65483          	lhu	s1,62(a2)
  482194:	00048463          	beqz	s1,48219c <calc_func+0x1428>
  482198:	17c0206f          	j	484314 <calc_func+0x35a0>
  48219c:	02861f23          	sh	s0,62(a2)
  4821a0:	03865403          	lhu	s0,56(a2)
  4821a4:	c51fe06f          	j	480df4 <calc_func+0x80>
  4821a8:	00158593          	addi	a1,a1,1
  4821ac:	41070633          	sub	a2,a4,a6
  4821b0:	00028e13          	mv	t3,t0
  4821b4:	a2b51463          	bne	a0,a1,4813dc <calc_func+0x668>
  4821b8:	0ffff513          	andi	a0,t6,255
  4821bc:	00157613          	andi	a2,a0,1
  4821c0:	0000a5b7          	lui	a1,0xa
  4821c4:	40c004b3          	neg	s1,a2
  4821c8:	00158813          	addi	a6,a1,1 # a001 <STACK_SIZE+0x9c01>
  4821cc:	00987cb3          	and	s9,a6,s1
  4821d0:	00155713          	srli	a4,a0,0x1
  4821d4:	019740b3          	xor	ra,a4,s9
  4821d8:	010f9913          	slli	s2,t6,0x10
  4821dc:	01095f13          	srli	t5,s2,0x10
  4821e0:	0010fd93          	andi	s11,ra,1
  4821e4:	008f5313          	srli	t1,t5,0x8
  4821e8:	00255393          	srli	t2,a0,0x2
  4821ec:	001cda93          	srli	s5,s9,0x1
  4821f0:	000d8c63          	beqz	s11,482208 <calc_func+0x1494>
  4821f4:	ffffa2b7          	lui	t0,0xffffa
  4821f8:	00128e93          	addi	t4,t0,1 # ffffa001 <__C_STACK_TOP__+0xffb5a001>
  4821fc:	01dac7b3          	xor	a5,s5,t4
  482200:	01079a13          	slli	s4,a5,0x10
  482204:	010a5a93          	srli	s5,s4,0x10
  482208:	0153cbb3          	xor	s7,t2,s5
  48220c:	001bff93          	andi	t6,s7,1
  482210:	0013d893          	srli	a7,t2,0x1
  482214:	001ad493          	srli	s1,s5,0x1
  482218:	000f8c63          	beqz	t6,482230 <calc_func+0x14bc>
  48221c:	ffffac37          	lui	s8,0xffffa
  482220:	001c0693          	addi	a3,s8,1 # ffffa001 <__C_STACK_TOP__+0xffb5a001>
  482224:	00d4ce33          	xor	t3,s1,a3
  482228:	010e1513          	slli	a0,t3,0x10
  48222c:	01055493          	srli	s1,a0,0x10
  482230:	0098c633          	xor	a2,a7,s1
  482234:	00167593          	andi	a1,a2,1
  482238:	0023d813          	srli	a6,t2,0x2
  48223c:	0014df13          	srli	t5,s1,0x1
  482240:	00058c63          	beqz	a1,482258 <calc_func+0x14e4>
  482244:	ffffacb7          	lui	s9,0xffffa
  482248:	001c8713          	addi	a4,s9,1 # ffffa001 <__C_STACK_TOP__+0xffb5a001>
  48224c:	00ef40b3          	xor	ra,t5,a4
  482250:	01009913          	slli	s2,ra,0x10
  482254:	01095f13          	srli	t5,s2,0x10
  482258:	01e84db3          	xor	s11,a6,t5
  48225c:	001df293          	andi	t0,s11,1
  482260:	0033de93          	srli	t4,t2,0x3
  482264:	001f5f93          	srli	t6,t5,0x1
  482268:	00028c63          	beqz	t0,482280 <calc_func+0x150c>
  48226c:	ffffa7b7          	lui	a5,0xffffa
  482270:	00178a13          	addi	s4,a5,1 # ffffa001 <__C_STACK_TOP__+0xffb5a001>
  482274:	014fcab3          	xor	s5,t6,s4
  482278:	010a9b93          	slli	s7,s5,0x10
  48227c:	010bdf93          	srli	t6,s7,0x10
  482280:	01fec8b3          	xor	a7,t4,t6
  482284:	0018fc13          	andi	s8,a7,1
  482288:	0043d693          	srli	a3,t2,0x4
  48228c:	001fd593          	srli	a1,t6,0x1
  482290:	000c0c63          	beqz	s8,4822a8 <calc_func+0x1534>
  482294:	ffffae37          	lui	t3,0xffffa
  482298:	001e0513          	addi	a0,t3,1 # ffffa001 <__C_STACK_TOP__+0xffb5a001>
  48229c:	00a5c4b3          	xor	s1,a1,a0
  4822a0:	01049613          	slli	a2,s1,0x10
  4822a4:	01065593          	srli	a1,a2,0x10
  4822a8:	00b6c833          	xor	a6,a3,a1
  4822ac:	00187c93          	andi	s9,a6,1
  4822b0:	0053d393          	srli	t2,t2,0x5
  4822b4:	0015dd93          	srli	s11,a1,0x1
  4822b8:	000c8c63          	beqz	s9,4822d0 <calc_func+0x155c>
  4822bc:	ffffa737          	lui	a4,0xffffa
  4822c0:	00170093          	addi	ra,a4,1 # ffffa001 <__C_STACK_TOP__+0xffb5a001>
  4822c4:	001dc933          	xor	s2,s11,ra
  4822c8:	01091f13          	slli	t5,s2,0x10
  4822cc:	010f5d93          	srli	s11,t5,0x10
  4822d0:	001df293          	andi	t0,s11,1
  4822d4:	001ddb93          	srli	s7,s11,0x1
  4822d8:	00728c63          	beq	t0,t2,4822f0 <calc_func+0x157c>
  4822dc:	ffffaeb7          	lui	t4,0xffffa
  4822e0:	001e8793          	addi	a5,t4,1 # ffffa001 <__C_STACK_TOP__+0xffb5a001>
  4822e4:	00fbca33          	xor	s4,s7,a5
  4822e8:	010a1a93          	slli	s5,s4,0x10
  4822ec:	010adb93          	srli	s7,s5,0x10
  4822f0:	006bcfb3          	xor	t6,s7,t1
  4822f4:	001ff893          	andi	a7,t6,1
  4822f8:	00135c13          	srli	s8,t1,0x1
  4822fc:	001bd613          	srli	a2,s7,0x1
  482300:	00088c63          	beqz	a7,482318 <calc_func+0x15a4>
  482304:	ffffa6b7          	lui	a3,0xffffa
  482308:	00168e13          	addi	t3,a3,1 # ffffa001 <__C_STACK_TOP__+0xffb5a001>
  48230c:	01c64533          	xor	a0,a2,t3
  482310:	01051493          	slli	s1,a0,0x10
  482314:	0104d613          	srli	a2,s1,0x10
  482318:	00cc45b3          	xor	a1,s8,a2
  48231c:	0015f813          	andi	a6,a1,1
  482320:	00235c93          	srli	s9,t1,0x2
  482324:	00165f13          	srli	t5,a2,0x1
  482328:	00080c63          	beqz	a6,482340 <calc_func+0x15cc>
  48232c:	ffffa3b7          	lui	t2,0xffffa
  482330:	00138713          	addi	a4,t2,1 # ffffa001 <__C_STACK_TOP__+0xffb5a001>
  482334:	00ef40b3          	xor	ra,t5,a4
  482338:	01009913          	slli	s2,ra,0x10
  48233c:	01095f13          	srli	t5,s2,0x10
  482340:	019f4db3          	xor	s11,t5,s9
  482344:	001df293          	andi	t0,s11,1
  482348:	00335e93          	srli	t4,t1,0x3
  48234c:	001f5f93          	srli	t6,t5,0x1
  482350:	00028c63          	beqz	t0,482368 <calc_func+0x15f4>
  482354:	ffffa7b7          	lui	a5,0xffffa
  482358:	00178a13          	addi	s4,a5,1 # ffffa001 <__C_STACK_TOP__+0xffb5a001>
  48235c:	014fcab3          	xor	s5,t6,s4
  482360:	010a9b93          	slli	s7,s5,0x10
  482364:	010bdf93          	srli	t6,s7,0x10
  482368:	01fec8b3          	xor	a7,t4,t6
  48236c:	0018fc13          	andi	s8,a7,1
  482370:	00435e13          	srli	t3,t1,0x4
  482374:	001fd593          	srli	a1,t6,0x1
  482378:	000c0c63          	beqz	s8,482390 <calc_func+0x161c>
  48237c:	ffffa6b7          	lui	a3,0xffffa
  482380:	00168513          	addi	a0,a3,1 # ffffa001 <__C_STACK_TOP__+0xffb5a001>
  482384:	00a5c4b3          	xor	s1,a1,a0
  482388:	01049613          	slli	a2,s1,0x10
  48238c:	01065593          	srli	a1,a2,0x10
  482390:	00be4833          	xor	a6,t3,a1
  482394:	00187c93          	andi	s9,a6,1
  482398:	00535393          	srli	t2,t1,0x5
  48239c:	0015dd93          	srli	s11,a1,0x1
  4823a0:	000c8c63          	beqz	s9,4823b8 <calc_func+0x1644>
  4823a4:	ffffa737          	lui	a4,0xffffa
  4823a8:	00170093          	addi	ra,a4,1 # ffffa001 <__C_STACK_TOP__+0xffb5a001>
  4823ac:	001dc933          	xor	s2,s11,ra
  4823b0:	01091f13          	slli	t5,s2,0x10
  4823b4:	010f5d93          	srli	s11,t5,0x10
  4823b8:	007dc2b3          	xor	t0,s11,t2
  4823bc:	0012fe93          	andi	t4,t0,1
  4823c0:	00635793          	srli	a5,t1,0x6
  4823c4:	001dd893          	srli	a7,s11,0x1
  4823c8:	000e8c63          	beqz	t4,4823e0 <calc_func+0x166c>
  4823cc:	ffffaa37          	lui	s4,0xffffa
  4823d0:	001a0a93          	addi	s5,s4,1 # ffffa001 <__C_STACK_TOP__+0xffb5a001>
  4823d4:	0158cbb3          	xor	s7,a7,s5
  4823d8:	010b9f93          	slli	t6,s7,0x10
  4823dc:	010fd893          	srli	a7,t6,0x10
  4823e0:	00f8cc33          	xor	s8,a7,a5
  4823e4:	001c7e13          	andi	t3,s8,1
  4823e8:	00735313          	srli	t1,t1,0x7
  4823ec:	0018d593          	srli	a1,a7,0x1
  4823f0:	000e0c63          	beqz	t3,482408 <calc_func+0x1694>
  4823f4:	ffffa6b7          	lui	a3,0xffffa
  4823f8:	00168513          	addi	a0,a3,1 # ffffa001 <__C_STACK_TOP__+0xffb5a001>
  4823fc:	00a5c4b3          	xor	s1,a1,a0
  482400:	01049613          	slli	a2,s1,0x10
  482404:	01065593          	srli	a1,a2,0x10
  482408:	0015dc93          	srli	s9,a1,0x1
  48240c:	0015f813          	andi	a6,a1,1
  482410:	01912623          	sw	s9,12(sp)
  482414:	00680e63          	beq	a6,t1,482430 <calc_func+0x16bc>
  482418:	ffffa3b7          	lui	t2,0xffffa
  48241c:	00138713          	addi	a4,t2,1 # ffffa001 <__C_STACK_TOP__+0xffb5a001>
  482420:	00ecc0b3          	xor	ra,s9,a4
  482424:	01009913          	slli	s2,ra,0x10
  482428:	01095f13          	srli	t5,s2,0x10
  48242c:	01e12623          	sw	t5,12(sp)
  482430:	000d1463          	bnez	s10,482438 <calc_func+0x16c4>
  482434:	7ad0106f          	j	4843e0 <calc_func+0x366c>
  482438:	01012783          	lw	a5,16(sp)
  48243c:	01c12a03          	lw	s4,28(sp)
  482440:	01812b83          	lw	s7,24(sp)
  482444:	001d1093          	slli	ra,s10,0x1
  482448:	002d1e93          	slli	t4,s10,0x2
  48244c:	03a12023          	sw	s10,32(sp)
  482450:	00078a93          	mv	s5,a5
  482454:	00fe8cb3          	add	s9,t4,a5
  482458:	01408c33          	add	s8,ra,s4
  48245c:	000a0d13          	mv	s10,s4
  482460:	41ac0fb3          	sub	t6,s8,s10
  482464:	ffef8893          	addi	a7,t6,-2
  482468:	0018de13          	srli	t3,a7,0x1
  48246c:	001e0313          	addi	t1,t3,1
  482470:	00737513          	andi	a0,t1,7
  482474:	000d0913          	mv	s2,s10
  482478:	000b8a13          	mv	s4,s7
  48247c:	00000793          	li	a5,0
  482480:	0c050e63          	beqz	a0,48255c <calc_func+0x17e8>
  482484:	00100693          	li	a3,1
  482488:	0ad50c63          	beq	a0,a3,482540 <calc_func+0x17cc>
  48248c:	00200493          	li	s1,2
  482490:	08950c63          	beq	a0,s1,482528 <calc_func+0x17b4>
  482494:	00300613          	li	a2,3
  482498:	06c50c63          	beq	a0,a2,482510 <calc_func+0x179c>
  48249c:	00400593          	li	a1,4
  4824a0:	04b50c63          	beq	a0,a1,4824f8 <calc_func+0x1784>
  4824a4:	00500813          	li	a6,5
  4824a8:	03050c63          	beq	a0,a6,4824e0 <calc_func+0x176c>
  4824ac:	00600393          	li	t2,6
  4824b0:	00750c63          	beq	a0,t2,4824c8 <calc_func+0x1754>
  4824b4:	000b9703          	lh	a4,0(s7)
  4824b8:	000d1f03          	lh	t5,0(s10)
  4824bc:	002b8a13          	addi	s4,s7,2
  4824c0:	002d0913          	addi	s2,s10,2
  4824c4:	03e707b3          	mul	a5,a4,t5
  4824c8:	000a1d83          	lh	s11,0(s4)
  4824cc:	00091283          	lh	t0,0(s2)
  4824d0:	002a0a13          	addi	s4,s4,2
  4824d4:	00290913          	addi	s2,s2,2
  4824d8:	025d8eb3          	mul	t4,s11,t0
  4824dc:	01d787b3          	add	a5,a5,t4
  4824e0:	000a1f83          	lh	t6,0(s4)
  4824e4:	00091883          	lh	a7,0(s2)
  4824e8:	002a0a13          	addi	s4,s4,2
  4824ec:	00290913          	addi	s2,s2,2
  4824f0:	031f8e33          	mul	t3,t6,a7
  4824f4:	01c787b3          	add	a5,a5,t3
  4824f8:	000a1303          	lh	t1,0(s4)
  4824fc:	00091503          	lh	a0,0(s2)
  482500:	002a0a13          	addi	s4,s4,2
  482504:	00290913          	addi	s2,s2,2
  482508:	02a306b3          	mul	a3,t1,a0
  48250c:	00d787b3          	add	a5,a5,a3
  482510:	000a1483          	lh	s1,0(s4)
  482514:	00091603          	lh	a2,0(s2)
  482518:	002a0a13          	addi	s4,s4,2
  48251c:	00290913          	addi	s2,s2,2
  482520:	02c485b3          	mul	a1,s1,a2
  482524:	00b787b3          	add	a5,a5,a1
  482528:	000a1803          	lh	a6,0(s4)
  48252c:	00091383          	lh	t2,0(s2)
  482530:	002a0a13          	addi	s4,s4,2
  482534:	00290913          	addi	s2,s2,2
  482538:	02780733          	mul	a4,a6,t2
  48253c:	00e787b3          	add	a5,a5,a4
  482540:	000a1f03          	lh	t5,0(s4)
  482544:	00091d83          	lh	s11,0(s2)
  482548:	00290913          	addi	s2,s2,2
  48254c:	002a0a13          	addi	s4,s4,2
  482550:	03bf02b3          	mul	t0,t5,s11
  482554:	005787b3          	add	a5,a5,t0
  482558:	092c0863          	beq	s8,s2,4825e8 <calc_func+0x1874>
  48255c:	000a1e83          	lh	t4,0(s4)
  482560:	00091303          	lh	t1,0(s2)
  482564:	002a1483          	lh	s1,2(s4)
  482568:	00291f83          	lh	t6,2(s2)
  48256c:	026e8733          	mul	a4,t4,t1
  482570:	004a1e03          	lh	t3,4(s4)
  482574:	00491383          	lh	t2,4(s2)
  482578:	006a1883          	lh	a7,6(s4)
  48257c:	00691d83          	lh	s11,6(s2)
  482580:	008a1503          	lh	a0,8(s4)
  482584:	00891f03          	lh	t5,8(s2)
  482588:	00aa1583          	lh	a1,10(s4)
  48258c:	00a91283          	lh	t0,10(s2)
  482590:	00ca1603          	lh	a2,12(s4)
  482594:	03f48333          	mul	t1,s1,t6
  482598:	00c91e83          	lh	t4,12(s2)
  48259c:	00ea1683          	lh	a3,14(s4)
  4825a0:	00e91803          	lh	a6,14(s2)
  4825a4:	00e787b3          	add	a5,a5,a4
  4825a8:	01090913          	addi	s2,s2,16
  4825ac:	010a0a13          	addi	s4,s4,16
  4825b0:	027e04b3          	mul	s1,t3,t2
  4825b4:	00678fb3          	add	t6,a5,t1
  4825b8:	03b88e33          	mul	t3,a7,s11
  4825bc:	009f83b3          	add	t2,t6,s1
  4825c0:	03e508b3          	mul	a7,a0,t5
  4825c4:	01c38db3          	add	s11,t2,t3
  4825c8:	02558733          	mul	a4,a1,t0
  4825cc:	011d8533          	add	a0,s11,a7
  4825d0:	03d60f33          	mul	t5,a2,t4
  4825d4:	00e505b3          	add	a1,a0,a4
  4825d8:	030682b3          	mul	t0,a3,a6
  4825dc:	01e58633          	add	a2,a1,t5
  4825e0:	005607b3          	add	a5,a2,t0
  4825e4:	f72c1ce3          	bne	s8,s2,48255c <calc_func+0x17e8>
  4825e8:	00faa023          	sw	a5,0(s5)
  4825ec:	004a8a93          	addi	s5,s5,4
  4825f0:	001b8bb3          	add	s7,s7,ra
  4825f4:	e79a96e3          	bne	s5,s9,482460 <calc_func+0x16ec>
  4825f8:	02012d03          	lw	s10,32(sp)
  4825fc:	00000613          	li	a2,0
  482600:	00000313          	li	t1,0
  482604:	41a000b3          	neg	ra,s10
  482608:	00209893          	slli	a7,ra,0x2
  48260c:	00000e13          	li	t3,0
  482610:	00000513          	li	a0,0
  482614:	00309813          	slli	a6,ra,0x3
  482618:	011a8cb3          	add	s9,s5,a7
  48261c:	419a8c33          	sub	s8,s5,s9
  482620:	ffcc0913          	addi	s2,s8,-4
  482624:	00295a13          	srli	s4,s2,0x2
  482628:	001a0e93          	addi	t4,s4,1
  48262c:	007ef493          	andi	s1,t4,7
  482630:	000c8693          	mv	a3,s9
  482634:	00030a13          	mv	s4,t1
  482638:	00049463          	bnez	s1,482640 <calc_func+0x18cc>
  48263c:	5980106f          	j	483bd4 <calc_func+0x2e60>
  482640:	00100f93          	li	t6,1
  482644:	15f48463          	beq	s1,t6,48278c <calc_func+0x1a18>
  482648:	00200393          	li	t2,2
  48264c:	10748863          	beq	s1,t2,48275c <calc_func+0x19e8>
  482650:	00300d93          	li	s11,3
  482654:	0db48c63          	beq	s1,s11,48272c <calc_func+0x19b8>
  482658:	00400713          	li	a4,4
  48265c:	0ae48063          	beq	s1,a4,4826fc <calc_func+0x1988>
  482660:	00500f13          	li	t5,5
  482664:	07e48463          	beq	s1,t5,4826cc <calc_func+0x1958>
  482668:	00600593          	li	a1,6
  48266c:	02b48863          	beq	s1,a1,48269c <calc_func+0x1928>
  482670:	000caa03          	lw	s4,0(s9)
  482674:	01061693          	slli	a3,a2,0x10
  482678:	0106d793          	srli	a5,a3,0x10
  48267c:	014e0e33          	add	t3,t3,s4
  482680:	01c9c463          	blt	s3,t3,482688 <calc_func+0x1914>
  482684:	4e90106f          	j	48436c <calc_func+0x35f8>
  482688:	00a78e13          	addi	t3,a5,10
  48268c:	010e1b93          	slli	s7,t3,0x10
  482690:	410bd613          	srai	a2,s7,0x10
  482694:	00000e13          	li	t3,0
  482698:	004c8693          	addi	a3,s9,4
  48269c:	0006a083          	lw	ra,0(a3)
  4826a0:	01061c13          	slli	s8,a2,0x10
  4826a4:	010c5913          	srli	s2,s8,0x10
  4826a8:	001e0e33          	add	t3,t3,ra
  4826ac:	01c9c463          	blt	s3,t3,4826b4 <calc_func+0x1940>
  4826b0:	4a90106f          	j	484358 <calc_func+0x35e4>
  4826b4:	00a90f93          	addi	t6,s2,10
  4826b8:	010f9393          	slli	t2,t6,0x10
  4826bc:	4103d613          	srai	a2,t2,0x10
  4826c0:	00000e13          	li	t3,0
  4826c4:	00468693          	addi	a3,a3,4
  4826c8:	00008a13          	mv	s4,ra
  4826cc:	0006ad83          	lw	s11,0(a3)
  4826d0:	01061713          	slli	a4,a2,0x10
  4826d4:	01075f13          	srli	t5,a4,0x10
  4826d8:	01be0e33          	add	t3,t3,s11
  4826dc:	01c9c463          	blt	s3,t3,4826e4 <calc_func+0x1970>
  4826e0:	3f10106f          	j	4842d0 <calc_func+0x355c>
  4826e4:	00af0293          	addi	t0,t5,10
  4826e8:	01029613          	slli	a2,t0,0x10
  4826ec:	41065613          	srai	a2,a2,0x10
  4826f0:	00000e13          	li	t3,0
  4826f4:	00468693          	addi	a3,a3,4
  4826f8:	000d8a13          	mv	s4,s11
  4826fc:	0006ab83          	lw	s7,0(a3)
  482700:	01061093          	slli	ra,a2,0x10
  482704:	0100dc13          	srli	s8,ra,0x10
  482708:	017e0e33          	add	t3,t3,s7
  48270c:	01c9c463          	blt	s3,t3,482714 <calc_func+0x19a0>
  482710:	3990106f          	j	4842a8 <calc_func+0x3534>
  482714:	00ac0e13          	addi	t3,s8,10
  482718:	010e1493          	slli	s1,t3,0x10
  48271c:	4104d613          	srai	a2,s1,0x10
  482720:	00000e13          	li	t3,0
  482724:	00468693          	addi	a3,a3,4
  482728:	000b8a13          	mv	s4,s7
  48272c:	0006af83          	lw	t6,0(a3)
  482730:	01061393          	slli	t2,a2,0x10
  482734:	0103dd93          	srli	s11,t2,0x10
  482738:	01fe0e33          	add	t3,t3,t6
  48273c:	01c9c463          	blt	s3,t3,482744 <calc_func+0x19d0>
  482740:	2f10106f          	j	484230 <calc_func+0x34bc>
  482744:	00ad8793          	addi	a5,s11,10
  482748:	01079313          	slli	t1,a5,0x10
  48274c:	41035613          	srai	a2,t1,0x10
  482750:	00000e13          	li	t3,0
  482754:	00468693          	addi	a3,a3,4
  482758:	000f8a13          	mv	s4,t6
  48275c:	0006a283          	lw	t0,0(a3)
  482760:	01061613          	slli	a2,a2,0x10
  482764:	01065b93          	srli	s7,a2,0x10
  482768:	005e0e33          	add	t3,t3,t0
  48276c:	01c9c463          	blt	s3,t3,482774 <calc_func+0x1a00>
  482770:	2850106f          	j	4841f4 <calc_func+0x3480>
  482774:	00ab8a13          	addi	s4,s7,10
  482778:	010a1e93          	slli	t4,s4,0x10
  48277c:	410ed613          	srai	a2,t4,0x10
  482780:	00000e13          	li	t3,0
  482784:	00468693          	addi	a3,a3,4
  482788:	00028a13          	mv	s4,t0
  48278c:	0006a303          	lw	t1,0(a3)
  482790:	01061493          	slli	s1,a2,0x10
  482794:	0104df93          	srli	t6,s1,0x10
  482798:	006e0e33          	add	t3,t3,t1
  48279c:	01c9c463          	blt	s3,t3,4827a4 <calc_func+0x1a30>
  4827a0:	1f10106f          	j	484190 <calc_func+0x341c>
  4827a4:	00af8e13          	addi	t3,t6,10
  4827a8:	010e1f13          	slli	t5,t3,0x10
  4827ac:	410f5613          	srai	a2,t5,0x10
  4827b0:	00000e13          	li	t3,0
  4827b4:	00468693          	addi	a3,a3,4
  4827b8:	00da8463          	beq	s5,a3,4827c0 <calc_func+0x1a4c>
  4827bc:	4180106f          	j	483bd4 <calc_func+0x2e60>
  4827c0:	00150513          	addi	a0,a0,1
  4827c4:	410c8ab3          	sub	s5,s9,a6
  4827c8:	e4ad18e3          	bne	s10,a0,482618 <calc_func+0x18a4>
  4827cc:	01061c93          	slli	s9,a2,0x10
  4827d0:	010cdc13          	srli	s8,s9,0x10
  4827d4:	0ff67293          	andi	t0,a2,255
  4827d8:	008c5d93          	srli	s11,s8,0x8
  4827dc:	00c12903          	lw	s2,12(sp)
  4827e0:	0012d493          	srli	s1,t0,0x1
  4827e4:	00594eb3          	xor	t4,s2,t0
  4827e8:	001efa13          	andi	s4,t4,1
  4827ec:	00195f13          	srli	t5,s2,0x1
  4827f0:	000a0c63          	beqz	s4,482808 <calc_func+0x1a94>
  4827f4:	ffffafb7          	lui	t6,0xffffa
  4827f8:	001f8393          	addi	t2,t6,1 # ffffa001 <__C_STACK_TOP__+0xffb5a001>
  4827fc:	007f4733          	xor	a4,t5,t2
  482800:	01071313          	slli	t1,a4,0x10
  482804:	01035f13          	srli	t5,t1,0x10
  482808:	009f4e33          	xor	t3,t5,s1
  48280c:	001e7593          	andi	a1,t3,1
  482810:	0022d613          	srli	a2,t0,0x2
  482814:	001f5813          	srli	a6,t5,0x1
  482818:	00058c63          	beqz	a1,482830 <calc_func+0x1abc>
  48281c:	ffffabb7          	lui	s7,0xffffa
  482820:	001b8093          	addi	ra,s7,1 # ffffa001 <__C_STACK_TOP__+0xffb5a001>
  482824:	001847b3          	xor	a5,a6,ra
  482828:	01079693          	slli	a3,a5,0x10
  48282c:	0106d813          	srli	a6,a3,0x10
  482830:	00c848b3          	xor	a7,a6,a2
  482834:	0018f513          	andi	a0,a7,1
  482838:	0032da93          	srli	s5,t0,0x3
  48283c:	00185a13          	srli	s4,a6,0x1
  482840:	00050c63          	beqz	a0,482858 <calc_func+0x1ae4>
  482844:	ffffacb7          	lui	s9,0xffffa
  482848:	001c8c13          	addi	s8,s9,1 # ffffa001 <__C_STACK_TOP__+0xffb5a001>
  48284c:	018a4933          	xor	s2,s4,s8
  482850:	01091e93          	slli	t4,s2,0x10
  482854:	010eda13          	srli	s4,t4,0x10
  482858:	015a44b3          	xor	s1,s4,s5
  48285c:	0014ff93          	andi	t6,s1,1
  482860:	0042d393          	srli	t2,t0,0x4
  482864:	001a5b93          	srli	s7,s4,0x1
  482868:	000f8c63          	beqz	t6,482880 <calc_func+0x1b0c>
  48286c:	ffffa737          	lui	a4,0xffffa
  482870:	00170313          	addi	t1,a4,1 # ffffa001 <__C_STACK_TOP__+0xffb5a001>
  482874:	006bcf33          	xor	t5,s7,t1
  482878:	010f1e13          	slli	t3,t5,0x10
  48287c:	010e5b93          	srli	s7,t3,0x10
  482880:	007bc5b3          	xor	a1,s7,t2
  482884:	0015f613          	andi	a2,a1,1
  482888:	0052d093          	srli	ra,t0,0x5
  48288c:	001bd513          	srli	a0,s7,0x1
  482890:	00060c63          	beqz	a2,4828a8 <calc_func+0x1b34>
  482894:	ffffa6b7          	lui	a3,0xffffa
  482898:	00168813          	addi	a6,a3,1 # ffffa001 <__C_STACK_TOP__+0xffb5a001>
  48289c:	010547b3          	xor	a5,a0,a6
  4828a0:	01079893          	slli	a7,a5,0x10
  4828a4:	0108d513          	srli	a0,a7,0x10
  4828a8:	00154ab3          	xor	s5,a0,ra
  4828ac:	001afc93          	andi	s9,s5,1
  4828b0:	0062dc13          	srli	s8,t0,0x6
  4828b4:	00155f93          	srli	t6,a0,0x1
  4828b8:	000c8c63          	beqz	s9,4828d0 <calc_func+0x1b5c>
  4828bc:	ffffa937          	lui	s2,0xffffa
  4828c0:	00190e93          	addi	t4,s2,1 # ffffa001 <__C_STACK_TOP__+0xffb5a001>
  4828c4:	01dfca33          	xor	s4,t6,t4
  4828c8:	010a1493          	slli	s1,s4,0x10
  4828cc:	0104df93          	srli	t6,s1,0x10
  4828d0:	018fc3b3          	xor	t2,t6,s8
  4828d4:	0013f713          	andi	a4,t2,1
  4828d8:	0072d293          	srli	t0,t0,0x7
  4828dc:	001fd593          	srli	a1,t6,0x1
  4828e0:	00070c63          	beqz	a4,4828f8 <calc_func+0x1b84>
  4828e4:	ffffa337          	lui	t1,0xffffa
  4828e8:	00130f13          	addi	t5,t1,1 # ffffa001 <__C_STACK_TOP__+0xffb5a001>
  4828ec:	01e5ce33          	xor	t3,a1,t5
  4828f0:	010e1b93          	slli	s7,t3,0x10
  4828f4:	010bd593          	srli	a1,s7,0x10
  4828f8:	0015f613          	andi	a2,a1,1
  4828fc:	0015d893          	srli	a7,a1,0x1
  482900:	00560c63          	beq	a2,t0,482918 <calc_func+0x1ba4>
  482904:	ffffa0b7          	lui	ra,0xffffa
  482908:	00108693          	addi	a3,ra,1 # ffffa001 <__C_STACK_TOP__+0xffb5a001>
  48290c:	00d8c833          	xor	a6,a7,a3
  482910:	01081793          	slli	a5,a6,0x10
  482914:	0107d893          	srli	a7,a5,0x10
  482918:	01b8c533          	xor	a0,a7,s11
  48291c:	00157a93          	andi	s5,a0,1
  482920:	001ddc93          	srli	s9,s11,0x1
  482924:	0018d493          	srli	s1,a7,0x1
  482928:	000a8c63          	beqz	s5,482940 <calc_func+0x1bcc>
  48292c:	ffffac37          	lui	s8,0xffffa
  482930:	001c0913          	addi	s2,s8,1 # ffffa001 <__C_STACK_TOP__+0xffb5a001>
  482934:	0124ceb3          	xor	t4,s1,s2
  482938:	010e9a13          	slli	s4,t4,0x10
  48293c:	010a5493          	srli	s1,s4,0x10
  482940:	0194cfb3          	xor	t6,s1,s9
  482944:	001ff393          	andi	t2,t6,1
  482948:	002dd713          	srli	a4,s11,0x2
  48294c:	0014db93          	srli	s7,s1,0x1
  482950:	00038c63          	beqz	t2,482968 <calc_func+0x1bf4>
  482954:	ffffa2b7          	lui	t0,0xffffa
  482958:	00128313          	addi	t1,t0,1 # ffffa001 <__C_STACK_TOP__+0xffb5a001>
  48295c:	006bcf33          	xor	t5,s7,t1
  482960:	010f1e13          	slli	t3,t5,0x10
  482964:	010e5b93          	srli	s7,t3,0x10
  482968:	017745b3          	xor	a1,a4,s7
  48296c:	0015f093          	andi	ra,a1,1
  482970:	003dd613          	srli	a2,s11,0x3
  482974:	001bd513          	srli	a0,s7,0x1
  482978:	00008c63          	beqz	ra,482990 <calc_func+0x1c1c>
  48297c:	ffffa6b7          	lui	a3,0xffffa
  482980:	00168813          	addi	a6,a3,1 # ffffa001 <__C_STACK_TOP__+0xffb5a001>
  482984:	010547b3          	xor	a5,a0,a6
  482988:	01079893          	slli	a7,a5,0x10
  48298c:	0108d513          	srli	a0,a7,0x10
  482990:	00c54ab3          	xor	s5,a0,a2
  482994:	001afc93          	andi	s9,s5,1
  482998:	004ddc13          	srli	s8,s11,0x4
  48299c:	00155f93          	srli	t6,a0,0x1
  4829a0:	000c8c63          	beqz	s9,4829b8 <calc_func+0x1c44>
  4829a4:	ffffa937          	lui	s2,0xffffa
  4829a8:	00190e93          	addi	t4,s2,1 # ffffa001 <__C_STACK_TOP__+0xffb5a001>
  4829ac:	01dfca33          	xor	s4,t6,t4
  4829b0:	010a1493          	slli	s1,s4,0x10
  4829b4:	0104df93          	srli	t6,s1,0x10
  4829b8:	018fc3b3          	xor	t2,t6,s8
  4829bc:	0013f713          	andi	a4,t2,1
  4829c0:	005dd293          	srli	t0,s11,0x5
  4829c4:	001fd593          	srli	a1,t6,0x1
  4829c8:	00070c63          	beqz	a4,4829e0 <calc_func+0x1c6c>
  4829cc:	ffffa337          	lui	t1,0xffffa
  4829d0:	00130f13          	addi	t5,t1,1 # ffffa001 <__C_STACK_TOP__+0xffb5a001>
  4829d4:	01e5ce33          	xor	t3,a1,t5
  4829d8:	010e1b93          	slli	s7,t3,0x10
  4829dc:	010bd593          	srli	a1,s7,0x10
  4829e0:	0055c0b3          	xor	ra,a1,t0
  4829e4:	0010f613          	andi	a2,ra,1
  4829e8:	006dd693          	srli	a3,s11,0x6
  4829ec:	0015da93          	srli	s5,a1,0x1
  4829f0:	00060c63          	beqz	a2,482a08 <calc_func+0x1c94>
  4829f4:	ffffa837          	lui	a6,0xffffa
  4829f8:	00180893          	addi	a7,a6,1 # ffffa001 <__C_STACK_TOP__+0xffb5a001>
  4829fc:	011ac7b3          	xor	a5,s5,a7
  482a00:	01079513          	slli	a0,a5,0x10
  482a04:	01055a93          	srli	s5,a0,0x10
  482a08:	00daccb3          	xor	s9,s5,a3
  482a0c:	001cfc13          	andi	s8,s9,1
  482a10:	007ddd93          	srli	s11,s11,0x7
  482a14:	001adf93          	srli	t6,s5,0x1
  482a18:	000c0c63          	beqz	s8,482a30 <calc_func+0x1cbc>
  482a1c:	ffffa937          	lui	s2,0xffffa
  482a20:	00190e93          	addi	t4,s2,1 # ffffa001 <__C_STACK_TOP__+0xffb5a001>
  482a24:	01dfca33          	xor	s4,t6,t4
  482a28:	010a1493          	slli	s1,s4,0x10
  482a2c:	0104df93          	srli	t6,s1,0x10
  482a30:	001fd713          	srli	a4,t6,0x1
  482a34:	001ff393          	andi	t2,t6,1
  482a38:	02e12023          	sw	a4,32(sp)
  482a3c:	01b38e63          	beq	t2,s11,482a58 <calc_func+0x1ce4>
  482a40:	ffffa2b7          	lui	t0,0xffffa
  482a44:	00128313          	addi	t1,t0,1 # ffffa001 <__C_STACK_TOP__+0xffb5a001>
  482a48:	00674f33          	xor	t5,a4,t1
  482a4c:	010f1e13          	slli	t3,t5,0x10
  482a50:	010e5b93          	srli	s7,t3,0x10
  482a54:	03712023          	sw	s7,32(sp)
  482a58:	000d1463          	bnez	s10,482a60 <calc_func+0x1cec>
  482a5c:	1790106f          	j	4843d4 <calc_func+0x3660>
  482a60:	01812583          	lw	a1,24(sp)
  482a64:	01c12683          	lw	a3,28(sp)
  482a68:	01012a03          	lw	s4,16(sp)
  482a6c:	001d1913          	slli	s2,s10,0x1
  482a70:	002d1613          	slli	a2,s10,0x2
  482a74:	03612623          	sw	s6,44(sp)
  482a78:	00058c13          	mv	s8,a1
  482a7c:	00b90bb3          	add	s7,s2,a1
  482a80:	00c12623          	sw	a2,12(sp)
  482a84:	01268cb3          	add	s9,a3,s2
  482a88:	00000a93          	li	s5,0
  482a8c:	03312223          	sw	s3,36(sp)
  482a90:	02812423          	sw	s0,40(sp)
  482a94:	00068b13          	mv	s6,a3
  482a98:	000b0493          	mv	s1,s6
  482a9c:	000a0993          	mv	s3,s4
  482aa0:	418b8433          	sub	s0,s7,s8
  482aa4:	ffe40893          	addi	a7,s0,-2
  482aa8:	0018d793          	srli	a5,a7,0x1
  482aac:	00178513          	addi	a0,a5,1
  482ab0:	00757d93          	andi	s11,a0,7
  482ab4:	00048e13          	mv	t3,s1
  482ab8:	000c0393          	mv	t2,s8
  482abc:	00000793          	li	a5,0
  482ac0:	0c0d8e63          	beqz	s11,482b9c <calc_func+0x1e28>
  482ac4:	00100e93          	li	t4,1
  482ac8:	0bdd8c63          	beq	s11,t4,482b80 <calc_func+0x1e0c>
  482acc:	00200f93          	li	t6,2
  482ad0:	09fd8c63          	beq	s11,t6,482b68 <calc_func+0x1df4>
  482ad4:	00300713          	li	a4,3
  482ad8:	06ed8c63          	beq	s11,a4,482b50 <calc_func+0x1ddc>
  482adc:	00400293          	li	t0,4
  482ae0:	045d8c63          	beq	s11,t0,482b38 <calc_func+0x1dc4>
  482ae4:	00500313          	li	t1,5
  482ae8:	026d8c63          	beq	s11,t1,482b20 <calc_func+0x1dac>
  482aec:	00600f13          	li	t5,6
  482af0:	01ed8c63          	beq	s11,t5,482b08 <calc_func+0x1d94>
  482af4:	000c1083          	lh	ra,0(s8)
  482af8:	00049803          	lh	a6,0(s1)
  482afc:	002c0393          	addi	t2,s8,2
  482b00:	01248e33          	add	t3,s1,s2
  482b04:	030087b3          	mul	a5,ra,a6
  482b08:	00039583          	lh	a1,0(t2)
  482b0c:	000e1603          	lh	a2,0(t3)
  482b10:	00238393          	addi	t2,t2,2
  482b14:	012e0e33          	add	t3,t3,s2
  482b18:	02c586b3          	mul	a3,a1,a2
  482b1c:	00d787b3          	add	a5,a5,a3
  482b20:	00039403          	lh	s0,0(t2)
  482b24:	000e1883          	lh	a7,0(t3)
  482b28:	00238393          	addi	t2,t2,2
  482b2c:	012e0e33          	add	t3,t3,s2
  482b30:	03140533          	mul	a0,s0,a7
  482b34:	00a787b3          	add	a5,a5,a0
  482b38:	00039d83          	lh	s11,0(t2)
  482b3c:	000e1e83          	lh	t4,0(t3)
  482b40:	00238393          	addi	t2,t2,2
  482b44:	012e0e33          	add	t3,t3,s2
  482b48:	03dd8fb3          	mul	t6,s11,t4
  482b4c:	01f787b3          	add	a5,a5,t6
  482b50:	00039703          	lh	a4,0(t2)
  482b54:	000e1283          	lh	t0,0(t3)
  482b58:	00238393          	addi	t2,t2,2
  482b5c:	012e0e33          	add	t3,t3,s2
  482b60:	02570333          	mul	t1,a4,t0
  482b64:	006787b3          	add	a5,a5,t1
  482b68:	00039f03          	lh	t5,0(t2)
  482b6c:	000e1083          	lh	ra,0(t3)
  482b70:	00238393          	addi	t2,t2,2
  482b74:	012e0e33          	add	t3,t3,s2
  482b78:	021f0833          	mul	a6,t5,ra
  482b7c:	010787b3          	add	a5,a5,a6
  482b80:	00039583          	lh	a1,0(t2)
  482b84:	000e1603          	lh	a2,0(t3)
  482b88:	00238393          	addi	t2,t2,2
  482b8c:	012e0e33          	add	t3,t3,s2
  482b90:	02c586b3          	mul	a3,a1,a2
  482b94:	00d787b3          	add	a5,a5,a3
  482b98:	0b738663          	beq	t2,s7,482c44 <calc_func+0x1ed0>
  482b9c:	012e08b3          	add	a7,t3,s2
  482ba0:	00039503          	lh	a0,0(t2)
  482ba4:	000e1e83          	lh	t4,0(t3)
  482ba8:	01288db3          	add	s11,a7,s2
  482bac:	00089303          	lh	t1,0(a7)
  482bb0:	00239403          	lh	s0,2(t2)
  482bb4:	012d8fb3          	add	t6,s11,s2
  482bb8:	000d9083          	lh	ra,0(s11)
  482bbc:	00439f03          	lh	t5,4(t2)
  482bc0:	012f8833          	add	a6,t6,s2
  482bc4:	03d50733          	mul	a4,a0,t4
  482bc8:	000f9283          	lh	t0,0(t6)
  482bcc:	00639883          	lh	a7,6(t2)
  482bd0:	01280633          	add	a2,a6,s2
  482bd4:	00839503          	lh	a0,8(t2)
  482bd8:	00081d83          	lh	s11,0(a6)
  482bdc:	012606b3          	add	a3,a2,s2
  482be0:	00a39583          	lh	a1,10(t2)
  482be4:	00061e83          	lh	t4,0(a2)
  482be8:	00c39f83          	lh	t6,12(t2)
  482bec:	02640433          	mul	s0,s0,t1
  482bf0:	01268e33          	add	t3,a3,s2
  482bf4:	00069303          	lh	t1,0(a3)
  482bf8:	000e1803          	lh	a6,0(t3)
  482bfc:	00e39683          	lh	a3,14(t2)
  482c00:	00e787b3          	add	a5,a5,a4
  482c04:	01038393          	addi	t2,t2,16
  482c08:	012e0e33          	add	t3,t3,s2
  482c0c:	021f0f33          	mul	t5,t5,ra
  482c10:	008780b3          	add	ra,a5,s0
  482c14:	025888b3          	mul	a7,a7,t0
  482c18:	01e08733          	add	a4,ra,t5
  482c1c:	03b502b3          	mul	t0,a0,s11
  482c20:	01170533          	add	a0,a4,a7
  482c24:	03d58db3          	mul	s11,a1,t4
  482c28:	005505b3          	add	a1,a0,t0
  482c2c:	026f8633          	mul	a2,t6,t1
  482c30:	01b58eb3          	add	t4,a1,s11
  482c34:	03068fb3          	mul	t6,a3,a6
  482c38:	00ce8433          	add	s0,t4,a2
  482c3c:	01f407b3          	add	a5,s0,t6
  482c40:	f5739ee3          	bne	t2,s7,482b9c <calc_func+0x1e28>
  482c44:	00f9a023          	sw	a5,0(s3) # fffff000 <__C_STACK_TOP__+0xffb5f000>
  482c48:	00248493          	addi	s1,s1,2
  482c4c:	00498993          	addi	s3,s3,4
  482c50:	e49c98e3          	bne	s9,s1,482aa0 <calc_func+0x1d2c>
  482c54:	01238bb3          	add	s7,t2,s2
  482c58:	00c12383          	lw	t2,12(sp)
  482c5c:	001a8a93          	addi	s5,s5,1
  482c60:	012c0c33          	add	s8,s8,s2
  482c64:	007a0a33          	add	s4,s4,t2
  482c68:	e35d18e3          	bne	s10,s5,482a98 <calc_func+0x1d24>
  482c6c:	01012e03          	lw	t3,16(sp)
  482c70:	02412983          	lw	s3,36(sp)
  482c74:	02812403          	lw	s0,40(sp)
  482c78:	02c12b03          	lw	s6,44(sp)
  482c7c:	41a00cb3          	neg	s9,s10
  482c80:	007e05b3          	add	a1,t3,t2
  482c84:	000a8693          	mv	a3,s5
  482c88:	002c9313          	slli	t1,s9,0x2
  482c8c:	00000793          	li	a5,0
  482c90:	00000e13          	li	t3,0
  482c94:	00000e93          	li	t4,0
  482c98:	00000813          	li	a6,0
  482c9c:	003c9893          	slli	a7,s9,0x3
  482ca0:	00b300b3          	add	ra,t1,a1
  482ca4:	40158f33          	sub	t5,a1,ra
  482ca8:	ffcf0713          	addi	a4,t5,-4
  482cac:	00275293          	srli	t0,a4,0x2
  482cb0:	00128513          	addi	a0,t0,1
  482cb4:	00757d93          	andi	s11,a0,7
  482cb8:	00008613          	mv	a2,ra
  482cbc:	000e0f93          	mv	t6,t3
  482cc0:	000d9463          	bnez	s11,482cc8 <calc_func+0x1f54>
  482cc4:	1500106f          	j	483e14 <calc_func+0x30a0>
  482cc8:	00100493          	li	s1,1
  482ccc:	149d8463          	beq	s11,s1,482e14 <calc_func+0x20a0>
  482cd0:	00200a93          	li	s5,2
  482cd4:	115d8863          	beq	s11,s5,482de4 <calc_func+0x2070>
  482cd8:	00300c13          	li	s8,3
  482cdc:	0d8d8c63          	beq	s11,s8,482db4 <calc_func+0x2040>
  482ce0:	00400b93          	li	s7,4
  482ce4:	0b7d8063          	beq	s11,s7,482d84 <calc_func+0x2010>
  482ce8:	00500393          	li	t2,5
  482cec:	067d8463          	beq	s11,t2,482d54 <calc_func+0x1fe0>
  482cf0:	00600a13          	li	s4,6
  482cf4:	034d8863          	beq	s11,s4,482d24 <calc_func+0x1fb0>
  482cf8:	0000af83          	lw	t6,0(ra)
  482cfc:	01079793          	slli	a5,a5,0x10
  482d00:	0107d613          	srli	a2,a5,0x10
  482d04:	01fe8eb3          	add	t4,t4,t6
  482d08:	01d9c463          	blt	s3,t4,482d10 <calc_func+0x1f9c>
  482d0c:	6740106f          	j	484380 <calc_func+0x360c>
  482d10:	00a60e93          	addi	t4,a2,10
  482d14:	010e9f13          	slli	t5,t4,0x10
  482d18:	410f5793          	srai	a5,t5,0x10
  482d1c:	00000e93          	li	t4,0
  482d20:	00408613          	addi	a2,ra,4
  482d24:	00062703          	lw	a4,0(a2)
  482d28:	01079293          	slli	t0,a5,0x10
  482d2c:	0102d513          	srli	a0,t0,0x10
  482d30:	00ee8eb3          	add	t4,t4,a4
  482d34:	01d9c463          	blt	s3,t4,482d3c <calc_func+0x1fc8>
  482d38:	60c0106f          	j	484344 <calc_func+0x35d0>
  482d3c:	00a50a93          	addi	s5,a0,10
  482d40:	010a9c13          	slli	s8,s5,0x10
  482d44:	410c5793          	srai	a5,s8,0x10
  482d48:	00000e93          	li	t4,0
  482d4c:	00460613          	addi	a2,a2,4
  482d50:	00070f93          	mv	t6,a4
  482d54:	00062b83          	lw	s7,0(a2)
  482d58:	01079393          	slli	t2,a5,0x10
  482d5c:	0103da13          	srli	s4,t2,0x10
  482d60:	017e8eb3          	add	t4,t4,s7
  482d64:	01d9c463          	blt	s3,t4,482d6c <calc_func+0x1ff8>
  482d68:	5540106f          	j	4842bc <calc_func+0x3548>
  482d6c:	00aa0e13          	addi	t3,s4,10
  482d70:	010e1e93          	slli	t4,t3,0x10
  482d74:	410ed793          	srai	a5,t4,0x10
  482d78:	00000e93          	li	t4,0
  482d7c:	00460613          	addi	a2,a2,4
  482d80:	000b8f93          	mv	t6,s7
  482d84:	00062f03          	lw	t5,0(a2)
  482d88:	01079713          	slli	a4,a5,0x10
  482d8c:	01075293          	srli	t0,a4,0x10
  482d90:	01ee8eb3          	add	t4,t4,t5
  482d94:	01d9c463          	blt	s3,t4,482d9c <calc_func+0x2028>
  482d98:	4fc0106f          	j	484294 <calc_func+0x3520>
  482d9c:	00a28493          	addi	s1,t0,10
  482da0:	01049a93          	slli	s5,s1,0x10
  482da4:	410ad793          	srai	a5,s5,0x10
  482da8:	00000e93          	li	t4,0
  482dac:	00460613          	addi	a2,a2,4
  482db0:	000f0f93          	mv	t6,t5
  482db4:	00062c03          	lw	s8,0(a2)
  482db8:	01079b93          	slli	s7,a5,0x10
  482dbc:	010bd393          	srli	t2,s7,0x10
  482dc0:	018e8eb3          	add	t4,t4,s8
  482dc4:	01d9c463          	blt	s3,t4,482dcc <calc_func+0x2058>
  482dc8:	4540106f          	j	48421c <calc_func+0x34a8>
  482dcc:	00a38c93          	addi	s9,t2,10
  482dd0:	010c9e13          	slli	t3,s9,0x10
  482dd4:	410e5793          	srai	a5,t3,0x10
  482dd8:	00000e93          	li	t4,0
  482ddc:	00460613          	addi	a2,a2,4
  482de0:	000c0f93          	mv	t6,s8
  482de4:	00062f03          	lw	t5,0(a2)
  482de8:	01079713          	slli	a4,a5,0x10
  482dec:	01075293          	srli	t0,a4,0x10
  482df0:	01ee8eb3          	add	t4,t4,t5
  482df4:	01d9c463          	blt	s3,t4,482dfc <calc_func+0x2088>
  482df8:	3e80106f          	j	4841e0 <calc_func+0x346c>
  482dfc:	00a28e93          	addi	t4,t0,10
  482e00:	010e9493          	slli	s1,t4,0x10
  482e04:	4104d793          	srai	a5,s1,0x10
  482e08:	00000e93          	li	t4,0
  482e0c:	00460613          	addi	a2,a2,4
  482e10:	000f0f93          	mv	t6,t5
  482e14:	00062e03          	lw	t3,0(a2)
  482e18:	01079a93          	slli	s5,a5,0x10
  482e1c:	010adc13          	srli	s8,s5,0x10
  482e20:	01ce8eb3          	add	t4,t4,t3
  482e24:	01d9c463          	blt	s3,t4,482e2c <calc_func+0x20b8>
  482e28:	3900106f          	j	4841b8 <calc_func+0x3444>
  482e2c:	00ac0793          	addi	a5,s8,10
  482e30:	01079913          	slli	s2,a5,0x10
  482e34:	41095793          	srai	a5,s2,0x10
  482e38:	00000e93          	li	t4,0
  482e3c:	00460613          	addi	a2,a2,4
  482e40:	7cb61ae3          	bne	a2,a1,483e14 <calc_func+0x30a0>
  482e44:	00180813          	addi	a6,a6,1
  482e48:	411085b3          	sub	a1,ra,a7
  482e4c:	e5069ae3          	bne	a3,a6,482ca0 <calc_func+0x1f2c>
  482e50:	01079093          	slli	ra,a5,0x10
  482e54:	0100dc13          	srli	s8,ra,0x10
  482e58:	0ff7f813          	andi	a6,a5,255
  482e5c:	008c5093          	srli	ra,s8,0x8
  482e60:	02012b83          	lw	s7,32(sp)
  482e64:	00185913          	srli	s2,a6,0x1
  482e68:	010bc3b3          	xor	t2,s7,a6
  482e6c:	0013fa13          	andi	s4,t2,1
  482e70:	001bd293          	srli	t0,s7,0x1
  482e74:	000a0c63          	beqz	s4,482e8c <calc_func+0x2118>
  482e78:	ffffacb7          	lui	s9,0xffffa
  482e7c:	001c8f13          	addi	t5,s9,1 # ffffa001 <__C_STACK_TOP__+0xffb5a001>
  482e80:	01e2ce33          	xor	t3,t0,t5
  482e84:	010e1713          	slli	a4,t3,0x10
  482e88:	01075293          	srli	t0,a4,0x10
  482e8c:	00594eb3          	xor	t4,s2,t0
  482e90:	001efd93          	andi	s11,t4,1
  482e94:	00285513          	srli	a0,a6,0x2
  482e98:	0012d313          	srli	t1,t0,0x1
  482e9c:	000d8c63          	beqz	s11,482eb4 <calc_func+0x2140>
  482ea0:	ffffa4b7          	lui	s1,0xffffa
  482ea4:	00148793          	addi	a5,s1,1 # ffffa001 <__C_STACK_TOP__+0xffb5a001>
  482ea8:	00f34fb3          	xor	t6,t1,a5
  482eac:	010f9a93          	slli	s5,t6,0x10
  482eb0:	010ad313          	srli	t1,s5,0x10
  482eb4:	00a34633          	xor	a2,t1,a0
  482eb8:	00167693          	andi	a3,a2,1
  482ebc:	00385893          	srli	a7,a6,0x3
  482ec0:	00135a13          	srli	s4,t1,0x1
  482ec4:	00068c63          	beqz	a3,482edc <calc_func+0x2168>
  482ec8:	ffffa5b7          	lui	a1,0xffffa
  482ecc:	00158c13          	addi	s8,a1,1 # ffffa001 <__C_STACK_TOP__+0xffb5a001>
  482ed0:	018a4bb3          	xor	s7,s4,s8
  482ed4:	010b9393          	slli	t2,s7,0x10
  482ed8:	0103da13          	srli	s4,t2,0x10
  482edc:	011a4933          	xor	s2,s4,a7
  482ee0:	00197c93          	andi	s9,s2,1
  482ee4:	00485f13          	srli	t5,a6,0x4
  482ee8:	001a5d93          	srli	s11,s4,0x1
  482eec:	000c8c63          	beqz	s9,482f04 <calc_func+0x2190>
  482ef0:	ffffae37          	lui	t3,0xffffa
  482ef4:	001e0713          	addi	a4,t3,1 # ffffa001 <__C_STACK_TOP__+0xffb5a001>
  482ef8:	00edc2b3          	xor	t0,s11,a4
  482efc:	01029e93          	slli	t4,t0,0x10
  482f00:	010edd93          	srli	s11,t4,0x10
  482f04:	01edc533          	xor	a0,s11,t5
  482f08:	00157493          	andi	s1,a0,1
  482f0c:	00585793          	srli	a5,a6,0x5
  482f10:	001dd893          	srli	a7,s11,0x1
  482f14:	00048c63          	beqz	s1,482f2c <calc_func+0x21b8>
  482f18:	ffffafb7          	lui	t6,0xffffa
  482f1c:	001f8a93          	addi	s5,t6,1 # ffffa001 <__C_STACK_TOP__+0xffb5a001>
  482f20:	0158c333          	xor	t1,a7,s5
  482f24:	01031613          	slli	a2,t1,0x10
  482f28:	01065893          	srli	a7,a2,0x10
  482f2c:	00f8c6b3          	xor	a3,a7,a5
  482f30:	0016f593          	andi	a1,a3,1
  482f34:	00685c13          	srli	s8,a6,0x6
  482f38:	0018dc93          	srli	s9,a7,0x1
  482f3c:	00058c63          	beqz	a1,482f54 <calc_func+0x21e0>
  482f40:	ffffa3b7          	lui	t2,0xffffa
  482f44:	00138a13          	addi	s4,t2,1 # ffffa001 <__C_STACK_TOP__+0xffb5a001>
  482f48:	014ccbb3          	xor	s7,s9,s4
  482f4c:	010b9913          	slli	s2,s7,0x10
  482f50:	01095c93          	srli	s9,s2,0x10
  482f54:	018ccf33          	xor	t5,s9,s8
  482f58:	001f7e13          	andi	t3,t5,1
  482f5c:	00785813          	srli	a6,a6,0x7
  482f60:	001cd513          	srli	a0,s9,0x1
  482f64:	000e0c63          	beqz	t3,482f7c <calc_func+0x2208>
  482f68:	ffffa737          	lui	a4,0xffffa
  482f6c:	00170293          	addi	t0,a4,1 # ffffa001 <__C_STACK_TOP__+0xffb5a001>
  482f70:	00554eb3          	xor	t4,a0,t0
  482f74:	010e9d93          	slli	s11,t4,0x10
  482f78:	010dd513          	srli	a0,s11,0x10
  482f7c:	00157493          	andi	s1,a0,1
  482f80:	00155613          	srli	a2,a0,0x1
  482f84:	01048c63          	beq	s1,a6,482f9c <calc_func+0x2228>
  482f88:	ffffa7b7          	lui	a5,0xffffa
  482f8c:	00178f93          	addi	t6,a5,1 # ffffa001 <__C_STACK_TOP__+0xffb5a001>
  482f90:	01f64ab3          	xor	s5,a2,t6
  482f94:	010a9313          	slli	t1,s5,0x10
  482f98:	01035613          	srli	a2,t1,0x10
  482f9c:	001648b3          	xor	a7,a2,ra
  482fa0:	0018f593          	andi	a1,a7,1
  482fa4:	0010d693          	srli	a3,ra,0x1
  482fa8:	00165913          	srli	s2,a2,0x1
  482fac:	00058c63          	beqz	a1,482fc4 <calc_func+0x2250>
  482fb0:	ffffac37          	lui	s8,0xffffa
  482fb4:	001c0393          	addi	t2,s8,1 # ffffa001 <__C_STACK_TOP__+0xffb5a001>
  482fb8:	00794a33          	xor	s4,s2,t2
  482fbc:	010a1b93          	slli	s7,s4,0x10
  482fc0:	010bd913          	srli	s2,s7,0x10
  482fc4:	00d94cb3          	xor	s9,s2,a3
  482fc8:	001cff13          	andi	t5,s9,1
  482fcc:	0020de13          	srli	t3,ra,0x2
  482fd0:	00195d93          	srli	s11,s2,0x1
  482fd4:	000f0c63          	beqz	t5,482fec <calc_func+0x2278>
  482fd8:	ffffa837          	lui	a6,0xffffa
  482fdc:	00180713          	addi	a4,a6,1 # ffffa001 <__C_STACK_TOP__+0xffb5a001>
  482fe0:	00edc2b3          	xor	t0,s11,a4
  482fe4:	01029e93          	slli	t4,t0,0x10
  482fe8:	010edd93          	srli	s11,t4,0x10
  482fec:	01cdc533          	xor	a0,s11,t3
  482ff0:	00157493          	andi	s1,a0,1
  482ff4:	0030df93          	srli	t6,ra,0x3
  482ff8:	001dd893          	srli	a7,s11,0x1
  482ffc:	00048c63          	beqz	s1,483014 <calc_func+0x22a0>
  483000:	ffffa7b7          	lui	a5,0xffffa
  483004:	00178a93          	addi	s5,a5,1 # ffffa001 <__C_STACK_TOP__+0xffb5a001>
  483008:	0158c333          	xor	t1,a7,s5
  48300c:	01031613          	slli	a2,t1,0x10
  483010:	01065893          	srli	a7,a2,0x10
  483014:	01f8c5b3          	xor	a1,a7,t6
  483018:	0015f693          	andi	a3,a1,1
  48301c:	0040dc13          	srli	s8,ra,0x4
  483020:	0018dc93          	srli	s9,a7,0x1
  483024:	00068c63          	beqz	a3,48303c <calc_func+0x22c8>
  483028:	ffffa3b7          	lui	t2,0xffffa
  48302c:	00138a13          	addi	s4,t2,1 # ffffa001 <__C_STACK_TOP__+0xffb5a001>
  483030:	014ccbb3          	xor	s7,s9,s4
  483034:	010b9913          	slli	s2,s7,0x10
  483038:	01095c93          	srli	s9,s2,0x10
  48303c:	018ccf33          	xor	t5,s9,s8
  483040:	001f7e13          	andi	t3,t5,1
  483044:	0050d813          	srli	a6,ra,0x5
  483048:	001cd513          	srli	a0,s9,0x1
  48304c:	000e0c63          	beqz	t3,483064 <calc_func+0x22f0>
  483050:	ffffa737          	lui	a4,0xffffa
  483054:	00170293          	addi	t0,a4,1 # ffffa001 <__C_STACK_TOP__+0xffb5a001>
  483058:	00554eb3          	xor	t4,a0,t0
  48305c:	010e9d93          	slli	s11,t4,0x10
  483060:	010dd513          	srli	a0,s11,0x10
  483064:	010544b3          	xor	s1,a0,a6
  483068:	0014ff93          	andi	t6,s1,1
  48306c:	0060d793          	srli	a5,ra,0x6
  483070:	00155593          	srli	a1,a0,0x1
  483074:	000f8c63          	beqz	t6,48308c <calc_func+0x2318>
  483078:	ffffaab7          	lui	s5,0xffffa
  48307c:	001a8313          	addi	t1,s5,1 # ffffa001 <__C_STACK_TOP__+0xffb5a001>
  483080:	0065c633          	xor	a2,a1,t1
  483084:	01061893          	slli	a7,a2,0x10
  483088:	0108d593          	srli	a1,a7,0x10
  48308c:	00f5c6b3          	xor	a3,a1,a5
  483090:	0016fc13          	andi	s8,a3,1
  483094:	0070d093          	srli	ra,ra,0x7
  483098:	0015dc93          	srli	s9,a1,0x1
  48309c:	000c0c63          	beqz	s8,4830b4 <calc_func+0x2340>
  4830a0:	ffffa3b7          	lui	t2,0xffffa
  4830a4:	00138a13          	addi	s4,t2,1 # ffffa001 <__C_STACK_TOP__+0xffb5a001>
  4830a8:	014ccbb3          	xor	s7,s9,s4
  4830ac:	010b9913          	slli	s2,s7,0x10
  4830b0:	01095c93          	srli	s9,s2,0x10
  4830b4:	001cff13          	andi	t5,s9,1
  4830b8:	001cdb93          	srli	s7,s9,0x1
  4830bc:	001f0c63          	beq	t5,ra,4830d4 <calc_func+0x2360>
  4830c0:	ffffae37          	lui	t3,0xffffa
  4830c4:	001e0813          	addi	a6,t3,1 # ffffa001 <__C_STACK_TOP__+0xffb5a001>
  4830c8:	010bc733          	xor	a4,s7,a6
  4830cc:	01071293          	slli	t0,a4,0x10
  4830d0:	0102db93          	srli	s7,t0,0x10
  4830d4:	000d1463          	bnez	s10,4830dc <calc_func+0x2368>
  4830d8:	2f40106f          	j	4843cc <calc_func+0x3658>
  4830dc:	01812e83          	lw	t4,24(sp)
  4830e0:	01c12883          	lw	a7,28(sp)
  4830e4:	01012a03          	lw	s4,16(sp)
  4830e8:	001d1d93          	slli	s11,s10,0x1
  4830ec:	000e8293          	mv	t0,t4
  4830f0:	01be8f33          	add	t5,t4,s11
  4830f4:	002d1093          	slli	ra,s10,0x2
  4830f8:	01b884b3          	add	s1,a7,s11
  4830fc:	00000913          	li	s2,0
  483100:	00088513          	mv	a0,a7
  483104:	000a0813          	mv	a6,s4
  483108:	405f0fb3          	sub	t6,t5,t0
  48310c:	ffef8793          	addi	a5,t6,-2
  483110:	0017da93          	srli	s5,a5,0x1
  483114:	001a8313          	addi	t1,s5,1
  483118:	00337613          	andi	a2,t1,3
  48311c:	00050f93          	mv	t6,a0
  483120:	00028e93          	mv	t4,t0
  483124:	00000793          	li	a5,0
  483128:	08060c63          	beqz	a2,4831c0 <calc_func+0x244c>
  48312c:	00100593          	li	a1,1
  483130:	06b60063          	beq	a2,a1,483190 <calc_func+0x241c>
  483134:	00200693          	li	a3,2
  483138:	02d60663          	beq	a2,a3,483164 <calc_func+0x23f0>
  48313c:	00029c03          	lh	s8,0(t0)
  483140:	00051383          	lh	t2,0(a0)
  483144:	00228e93          	addi	t4,t0,2
  483148:	01b50fb3          	add	t6,a0,s11
  48314c:	027c0cb3          	mul	s9,s8,t2
  483150:	402cde13          	srai	t3,s9,0x2
  483154:	405cd713          	srai	a4,s9,0x5
  483158:	00fe7793          	andi	a5,t3,15
  48315c:	07f77a93          	andi	s5,a4,127
  483160:	035787b3          	mul	a5,a5,s5
  483164:	000e9303          	lh	t1,0(t4)
  483168:	000f9603          	lh	a2,0(t6)
  48316c:	002e8e93          	addi	t4,t4,2
  483170:	01bf8fb3          	add	t6,t6,s11
  483174:	02c305b3          	mul	a1,t1,a2
  483178:	4025d693          	srai	a3,a1,0x2
  48317c:	4055dc13          	srai	s8,a1,0x5
  483180:	00f6f393          	andi	t2,a3,15
  483184:	07fc7c93          	andi	s9,s8,127
  483188:	03938e33          	mul	t3,t2,s9
  48318c:	01c787b3          	add	a5,a5,t3
  483190:	000e9703          	lh	a4,0(t4)
  483194:	000f9a83          	lh	s5,0(t6)
  483198:	002e8e93          	addi	t4,t4,2
  48319c:	01bf8fb3          	add	t6,t6,s11
  4831a0:	03570333          	mul	t1,a4,s5
  4831a4:	40235613          	srai	a2,t1,0x2
  4831a8:	40535593          	srai	a1,t1,0x5
  4831ac:	00f67693          	andi	a3,a2,15
  4831b0:	07f5fc13          	andi	s8,a1,127
  4831b4:	038683b3          	mul	t2,a3,s8
  4831b8:	007787b3          	add	a5,a5,t2
  4831bc:	0bdf0663          	beq	t5,t4,483268 <calc_func+0x24f4>
  4831c0:	01bf8cb3          	add	s9,t6,s11
  4831c4:	000e9e03          	lh	t3,0(t4)
  4831c8:	000f9a83          	lh	s5,0(t6)
  4831cc:	01bc8733          	add	a4,s9,s11
  4831d0:	002e9603          	lh	a2,2(t4)
  4831d4:	000c9683          	lh	a3,0(s9)
  4831d8:	004e9c03          	lh	s8,4(t4)
  4831dc:	01b70fb3          	add	t6,a4,s11
  4831e0:	00071303          	lh	t1,0(a4)
  4831e4:	035e05b3          	mul	a1,t3,s5
  4831e8:	006e9383          	lh	t2,6(t4)
  4831ec:	000f9e03          	lh	t3,0(t6)
  4831f0:	008e8e93          	addi	t4,t4,8
  4831f4:	01bf8fb3          	add	t6,t6,s11
  4831f8:	02d60ab3          	mul	s5,a2,a3
  4831fc:	4025dc93          	srai	s9,a1,0x2
  483200:	4055d613          	srai	a2,a1,0x5
  483204:	07f67693          	andi	a3,a2,127
  483208:	00fcfc93          	andi	s9,s9,15
  48320c:	026c0333          	mul	t1,s8,t1
  483210:	402ad713          	srai	a4,s5,0x2
  483214:	405ad593          	srai	a1,s5,0x5
  483218:	07f5f613          	andi	a2,a1,127
  48321c:	00f77c13          	andi	s8,a4,15
  483220:	03c383b3          	mul	t2,t2,t3
  483224:	40235e13          	srai	t3,t1,0x2
  483228:	40535313          	srai	t1,t1,0x5
  48322c:	00fe7a93          	andi	s5,t3,15
  483230:	07f37593          	andi	a1,t1,127
  483234:	02dc8cb3          	mul	s9,s9,a3
  483238:	4053d713          	srai	a4,t2,0x5
  48323c:	4023d693          	srai	a3,t2,0x2
  483240:	00f6f393          	andi	t2,a3,15
  483244:	07f77e13          	andi	t3,a4,127
  483248:	02cc0c33          	mul	s8,s8,a2
  48324c:	019787b3          	add	a5,a5,s9
  483250:	02ba8633          	mul	a2,s5,a1
  483254:	01878333          	add	t1,a5,s8
  483258:	03c38ab3          	mul	s5,t2,t3
  48325c:	00c305b3          	add	a1,t1,a2
  483260:	015587b3          	add	a5,a1,s5
  483264:	f5df1ee3          	bne	t5,t4,4831c0 <calc_func+0x244c>
  483268:	00f82023          	sw	a5,0(a6)
  48326c:	00250513          	addi	a0,a0,2
  483270:	00480813          	addi	a6,a6,4
  483274:	e8a49ae3          	bne	s1,a0,483108 <calc_func+0x2394>
  483278:	00190913          	addi	s2,s2,1
  48327c:	01b282b3          	add	t0,t0,s11
  483280:	01bf0f33          	add	t5,t5,s11
  483284:	001a0a33          	add	s4,s4,ra
  483288:	e72d1ce3          	bne	s10,s2,483100 <calc_func+0x238c>
  48328c:	01012883          	lw	a7,16(sp)
  483290:	41a00db3          	neg	s11,s10
  483294:	002d9513          	slli	a0,s11,0x2
  483298:	001883b3          	add	t2,a7,ra
  48329c:	00000a13          	li	s4,0
  4832a0:	00000893          	li	a7,0
  4832a4:	00000313          	li	t1,0
  4832a8:	00000613          	li	a2,0
  4832ac:	003d9593          	slli	a1,s11,0x3
  4832b0:	007500b3          	add	ra,a0,t2
  4832b4:	401384b3          	sub	s1,t2,ra
  4832b8:	ffc48e93          	addi	t4,s1,-4
  4832bc:	002edf93          	srli	t6,t4,0x2
  4832c0:	001f8c93          	addi	s9,t6,1
  4832c4:	007cf713          	andi	a4,s9,7
  4832c8:	00008693          	mv	a3,ra
  4832cc:	00088e93          	mv	t4,a7
  4832d0:	580702e3          	beqz	a4,484054 <calc_func+0x32e0>
  4832d4:	00100e13          	li	t3,1
  4832d8:	13c70a63          	beq	a4,t3,48340c <calc_func+0x2698>
  4832dc:	00200c13          	li	s8,2
  4832e0:	11870063          	beq	a4,s8,4833e0 <calc_func+0x266c>
  4832e4:	00300a93          	li	s5,3
  4832e8:	0d570663          	beq	a4,s5,4833b4 <calc_func+0x2640>
  4832ec:	00400813          	li	a6,4
  4832f0:	09070c63          	beq	a4,a6,483388 <calc_func+0x2614>
  4832f4:	00500293          	li	t0,5
  4832f8:	06570263          	beq	a4,t0,48335c <calc_func+0x25e8>
  4832fc:	00600f13          	li	t5,6
  483300:	03e70863          	beq	a4,t5,483330 <calc_func+0x25bc>
  483304:	0000ae83          	lw	t4,0(ra)
  483308:	010a1693          	slli	a3,s4,0x10
  48330c:	0106d793          	srli	a5,a3,0x10
  483310:	01d30333          	add	t1,t1,t4
  483314:	0069c463          	blt	s3,t1,48331c <calc_func+0x25a8>
  483318:	0900106f          	j	4843a8 <calc_func+0x3634>
  48331c:	00a78313          	addi	t1,a5,10
  483320:	01031493          	slli	s1,t1,0x10
  483324:	4104da13          	srai	s4,s1,0x10
  483328:	00000313          	li	t1,0
  48332c:	00408693          	addi	a3,ra,4
  483330:	0006af83          	lw	t6,0(a3)
  483334:	010a1c93          	slli	s9,s4,0x10
  483338:	010cd713          	srli	a4,s9,0x10
  48333c:	01f30333          	add	t1,t1,t6
  483340:	7c69dee3          	ble	t1,s3,48431c <calc_func+0x35a8>
  483344:	00a70a93          	addi	s5,a4,10
  483348:	010a9813          	slli	a6,s5,0x10
  48334c:	41085a13          	srai	s4,a6,0x10
  483350:	00000313          	li	t1,0
  483354:	00468693          	addi	a3,a3,4
  483358:	000f8e93          	mv	t4,t6
  48335c:	0006a283          	lw	t0,0(a3)
  483360:	010a1f13          	slli	t5,s4,0x10
  483364:	010f5793          	srli	a5,t5,0x10
  483368:	00530333          	add	t1,t1,t0
  48336c:	7669dce3          	ble	t1,s3,4842e4 <calc_func+0x3570>
  483370:	00a78313          	addi	t1,a5,10
  483374:	01031493          	slli	s1,t1,0x10
  483378:	4104da13          	srai	s4,s1,0x10
  48337c:	00000313          	li	t1,0
  483380:	00468693          	addi	a3,a3,4
  483384:	00028e93          	mv	t4,t0
  483388:	0006af83          	lw	t6,0(a3)
  48338c:	010a1c93          	slli	s9,s4,0x10
  483390:	010cd713          	srli	a4,s9,0x10
  483394:	01f30333          	add	t1,t1,t6
  483398:	6e69d4e3          	ble	t1,s3,484280 <calc_func+0x350c>
  48339c:	00a70a93          	addi	s5,a4,10
  4833a0:	010a9813          	slli	a6,s5,0x10
  4833a4:	41085a13          	srai	s4,a6,0x10
  4833a8:	00000313          	li	t1,0
  4833ac:	00468693          	addi	a3,a3,4
  4833b0:	000f8e93          	mv	t4,t6
  4833b4:	0006a283          	lw	t0,0(a3)
  4833b8:	010a1f13          	slli	t5,s4,0x10
  4833bc:	010f5793          	srli	a5,t5,0x10
  4833c0:	00530333          	add	t1,t1,t0
  4833c4:	6869d0e3          	ble	t1,s3,484244 <calc_func+0x34d0>
  4833c8:	00a78313          	addi	t1,a5,10
  4833cc:	01031493          	slli	s1,t1,0x10
  4833d0:	4104da13          	srai	s4,s1,0x10
  4833d4:	00000313          	li	t1,0
  4833d8:	00468693          	addi	a3,a3,4
  4833dc:	00028e93          	mv	t4,t0
  4833e0:	0006af83          	lw	t6,0(a3)
  4833e4:	010a1c93          	slli	s9,s4,0x10
  4833e8:	010cd713          	srli	a4,s9,0x10
  4833ec:	01f30333          	add	t1,t1,t6
  4833f0:	5c69dee3          	ble	t1,s3,4841cc <calc_func+0x3458>
  4833f4:	00a70a93          	addi	s5,a4,10
  4833f8:	010a9813          	slli	a6,s5,0x10
  4833fc:	41085a13          	srai	s4,a6,0x10
  483400:	00000313          	li	t1,0
  483404:	00468693          	addi	a3,a3,4
  483408:	000f8e93          	mv	t4,t6
  48340c:	0006a883          	lw	a7,0(a3)
  483410:	010a1293          	slli	t0,s4,0x10
  483414:	0102df13          	srli	t5,t0,0x10
  483418:	01130333          	add	t1,t1,a7
  48341c:	5669d0e3          	ble	t1,s3,48417c <calc_func+0x3408>
  483420:	00af0313          	addi	t1,t5,10
  483424:	01031493          	slli	s1,t1,0x10
  483428:	4104da13          	srai	s4,s1,0x10
  48342c:	00000313          	li	t1,0
  483430:	00468693          	addi	a3,a3,4
  483434:	427690e3          	bne	a3,t2,484054 <calc_func+0x32e0>
  483438:	00160613          	addi	a2,a2,1
  48343c:	40b083b3          	sub	t2,ra,a1
  483440:	e6c918e3          	bne	s2,a2,4832b0 <calc_func+0x253c>
  483444:	010a1093          	slli	ra,s4,0x10
  483448:	0100d493          	srli	s1,ra,0x10
  48344c:	0ffa7f93          	andi	t6,s4,255
  483450:	01f12223          	sw	t6,4(sp)
  483454:	0084d993          	srli	s3,s1,0x8
  483458:	00412c83          	lw	s9,4(sp)
  48345c:	001bde93          	srli	t4,s7,0x1
  483460:	019bc733          	xor	a4,s7,s9
  483464:	00177e13          	andi	t3,a4,1
  483468:	001cdc13          	srli	s8,s9,0x1
  48346c:	000e0c63          	beqz	t3,483484 <calc_func+0x2710>
  483470:	ffffa8b7          	lui	a7,0xffffa
  483474:	00188a93          	addi	s5,a7,1 # ffffa001 <__C_STACK_TOP__+0xffb5a001>
  483478:	015ec833          	xor	a6,t4,s5
  48347c:	01081313          	slli	t1,a6,0x10
  483480:	01035e93          	srli	t4,t1,0x10
  483484:	00412a03          	lw	s4,4(sp)
  483488:	018ec2b3          	xor	t0,t4,s8
  48348c:	0012ff13          	andi	t5,t0,1
  483490:	002a5d93          	srli	s11,s4,0x2
  483494:	001ed913          	srli	s2,t4,0x1
  483498:	000f0c63          	beqz	t5,4834b0 <calc_func+0x273c>
  48349c:	ffffa7b7          	lui	a5,0xffffa
  4834a0:	00178693          	addi	a3,a5,1 # ffffa001 <__C_STACK_TOP__+0xffb5a001>
  4834a4:	00d94533          	xor	a0,s2,a3
  4834a8:	01051593          	slli	a1,a0,0x10
  4834ac:	0105d913          	srli	s2,a1,0x10
  4834b0:	00412383          	lw	t2,4(sp)
  4834b4:	012dcbb3          	xor	s7,s11,s2
  4834b8:	001bf613          	andi	a2,s7,1
  4834bc:	0033d093          	srli	ra,t2,0x3
  4834c0:	00195e13          	srli	t3,s2,0x1
  4834c4:	00060c63          	beqz	a2,4834dc <calc_func+0x2768>
  4834c8:	ffffa4b7          	lui	s1,0xffffa
  4834cc:	00148f93          	addi	t6,s1,1 # ffffa001 <__C_STACK_TOP__+0xffb5a001>
  4834d0:	01fe4cb3          	xor	s9,t3,t6
  4834d4:	010c9713          	slli	a4,s9,0x10
  4834d8:	01075e13          	srli	t3,a4,0x10
  4834dc:	00412a83          	lw	s5,4(sp)
  4834e0:	001e4c33          	xor	s8,t3,ra
  4834e4:	001c7893          	andi	a7,s8,1
  4834e8:	004ad813          	srli	a6,s5,0x4
  4834ec:	001e5a13          	srli	s4,t3,0x1
  4834f0:	00088c63          	beqz	a7,483508 <calc_func+0x2794>
  4834f4:	ffffa337          	lui	t1,0xffffa
  4834f8:	00130e93          	addi	t4,t1,1 # ffffa001 <__C_STACK_TOP__+0xffb5a001>
  4834fc:	01da42b3          	xor	t0,s4,t4
  483500:	01029f13          	slli	t5,t0,0x10
  483504:	010f5a13          	srli	s4,t5,0x10
  483508:	00412683          	lw	a3,4(sp)
  48350c:	010a4db3          	xor	s11,s4,a6
  483510:	001df793          	andi	a5,s11,1
  483514:	0056d513          	srli	a0,a3,0x5
  483518:	001a5393          	srli	t2,s4,0x1
  48351c:	00078c63          	beqz	a5,483534 <calc_func+0x27c0>
  483520:	ffffa5b7          	lui	a1,0xffffa
  483524:	00158913          	addi	s2,a1,1 # ffffa001 <__C_STACK_TOP__+0xffb5a001>
  483528:	0123cbb3          	xor	s7,t2,s2
  48352c:	010b9613          	slli	a2,s7,0x10
  483530:	01065393          	srli	t2,a2,0x10
  483534:	00412f83          	lw	t6,4(sp)
  483538:	00a3c0b3          	xor	ra,t2,a0
  48353c:	0010f493          	andi	s1,ra,1
  483540:	006fdc93          	srli	s9,t6,0x6
  483544:	0013da93          	srli	s5,t2,0x1
  483548:	00048c63          	beqz	s1,483560 <calc_func+0x27ec>
  48354c:	ffffae37          	lui	t3,0xffffa
  483550:	001e0c13          	addi	s8,t3,1 # ffffa001 <__C_STACK_TOP__+0xffb5a001>
  483554:	018ac733          	xor	a4,s5,s8
  483558:	01071893          	slli	a7,a4,0x10
  48355c:	0108da93          	srli	s5,a7,0x10
  483560:	00412e83          	lw	t4,4(sp)
  483564:	019ac833          	xor	a6,s5,s9
  483568:	00187313          	andi	t1,a6,1
  48356c:	007ed293          	srli	t0,t4,0x7
  483570:	001ad693          	srli	a3,s5,0x1
  483574:	00030c63          	beqz	t1,48358c <calc_func+0x2818>
  483578:	ffffaf37          	lui	t5,0xffffa
  48357c:	001f0a13          	addi	s4,t5,1 # ffffa001 <__C_STACK_TOP__+0xffb5a001>
  483580:	0146cdb3          	xor	s11,a3,s4
  483584:	010d9793          	slli	a5,s11,0x10
  483588:	0107d693          	srli	a3,a5,0x10
  48358c:	0016f513          	andi	a0,a3,1
  483590:	0016d393          	srli	t2,a3,0x1
  483594:	00550c63          	beq	a0,t0,4835ac <calc_func+0x2838>
  483598:	ffffa5b7          	lui	a1,0xffffa
  48359c:	00158913          	addi	s2,a1,1 # ffffa001 <__C_STACK_TOP__+0xffb5a001>
  4835a0:	0123cbb3          	xor	s7,t2,s2
  4835a4:	010b9613          	slli	a2,s7,0x10
  4835a8:	01065393          	srli	t2,a2,0x10
  4835ac:	0133c0b3          	xor	ra,t2,s3
  4835b0:	0010f493          	andi	s1,ra,1
  4835b4:	0019df93          	srli	t6,s3,0x1
  4835b8:	0013d893          	srli	a7,t2,0x1
  4835bc:	00048c63          	beqz	s1,4835d4 <calc_func+0x2860>
  4835c0:	ffffacb7          	lui	s9,0xffffa
  4835c4:	001c8e13          	addi	t3,s9,1 # ffffa001 <__C_STACK_TOP__+0xffb5a001>
  4835c8:	01c8cc33          	xor	s8,a7,t3
  4835cc:	010c1713          	slli	a4,s8,0x10
  4835d0:	01075893          	srli	a7,a4,0x10
  4835d4:	01f8cab3          	xor	s5,a7,t6
  4835d8:	001af813          	andi	a6,s5,1
  4835dc:	0029d313          	srli	t1,s3,0x2
  4835e0:	0018dd93          	srli	s11,a7,0x1
  4835e4:	00080c63          	beqz	a6,4835fc <calc_func+0x2888>
  4835e8:	ffffaeb7          	lui	t4,0xffffa
  4835ec:	001e8293          	addi	t0,t4,1 # ffffa001 <__C_STACK_TOP__+0xffb5a001>
  4835f0:	005dcf33          	xor	t5,s11,t0
  4835f4:	010f1a13          	slli	s4,t5,0x10
  4835f8:	010a5d93          	srli	s11,s4,0x10
  4835fc:	01b347b3          	xor	a5,t1,s11
  483600:	0017f693          	andi	a3,a5,1
  483604:	0039d513          	srli	a0,s3,0x3
  483608:	001dd393          	srli	t2,s11,0x1
  48360c:	00068c63          	beqz	a3,483624 <calc_func+0x28b0>
  483610:	ffffa5b7          	lui	a1,0xffffa
  483614:	00158913          	addi	s2,a1,1 # ffffa001 <__C_STACK_TOP__+0xffb5a001>
  483618:	0123cbb3          	xor	s7,t2,s2
  48361c:	010b9613          	slli	a2,s7,0x10
  483620:	01065393          	srli	t2,a2,0x10
  483624:	00a3c0b3          	xor	ra,t2,a0
  483628:	0010f493          	andi	s1,ra,1
  48362c:	0049df93          	srli	t6,s3,0x4
  483630:	0013d893          	srli	a7,t2,0x1
  483634:	00048c63          	beqz	s1,48364c <calc_func+0x28d8>
  483638:	ffffacb7          	lui	s9,0xffffa
  48363c:	001c8e13          	addi	t3,s9,1 # ffffa001 <__C_STACK_TOP__+0xffb5a001>
  483640:	01c8cc33          	xor	s8,a7,t3
  483644:	010c1713          	slli	a4,s8,0x10
  483648:	01075893          	srli	a7,a4,0x10
  48364c:	01f8cab3          	xor	s5,a7,t6
  483650:	001af813          	andi	a6,s5,1
  483654:	0059d313          	srli	t1,s3,0x5
  483658:	0018dd93          	srli	s11,a7,0x1
  48365c:	00080c63          	beqz	a6,483674 <calc_func+0x2900>
  483660:	ffffaeb7          	lui	t4,0xffffa
  483664:	001e8293          	addi	t0,t4,1 # ffffa001 <__C_STACK_TOP__+0xffb5a001>
  483668:	005dcf33          	xor	t5,s11,t0
  48366c:	010f1a13          	slli	s4,t5,0x10
  483670:	010a5d93          	srli	s11,s4,0x10
  483674:	006dc7b3          	xor	a5,s11,t1
  483678:	0017f513          	andi	a0,a5,1
  48367c:	0069d693          	srli	a3,s3,0x6
  483680:	001dd393          	srli	t2,s11,0x1
  483684:	00050c63          	beqz	a0,48369c <calc_func+0x2928>
  483688:	ffffa5b7          	lui	a1,0xffffa
  48368c:	00158913          	addi	s2,a1,1 # ffffa001 <__C_STACK_TOP__+0xffb5a001>
  483690:	0123cbb3          	xor	s7,t2,s2
  483694:	010b9613          	slli	a2,s7,0x10
  483698:	01065393          	srli	t2,a2,0x10
  48369c:	0076c0b3          	xor	ra,a3,t2
  4836a0:	0010f493          	andi	s1,ra,1
  4836a4:	0079d993          	srli	s3,s3,0x7
  4836a8:	0013d713          	srli	a4,t2,0x1
  4836ac:	00048c63          	beqz	s1,4836c4 <calc_func+0x2950>
  4836b0:	ffffafb7          	lui	t6,0xffffa
  4836b4:	001f8c93          	addi	s9,t6,1 # ffffa001 <__C_STACK_TOP__+0xffb5a001>
  4836b8:	01974e33          	xor	t3,a4,s9
  4836bc:	010e1c13          	slli	s8,t3,0x10
  4836c0:	010c5713          	srli	a4,s8,0x10
  4836c4:	00177893          	andi	a7,a4,1
  4836c8:	00175293          	srli	t0,a4,0x1
  4836cc:	01388c63          	beq	a7,s3,4836e4 <calc_func+0x2970>
  4836d0:	ffffaab7          	lui	s5,0xffffa
  4836d4:	001a8813          	addi	a6,s5,1 # ffffa001 <__C_STACK_TOP__+0xffb5a001>
  4836d8:	0102c333          	xor	t1,t0,a6
  4836dc:	01031e93          	slli	t4,t1,0x10
  4836e0:	010ed293          	srli	t0,t4,0x10
  4836e4:	120d0e63          	beqz	s10,483820 <calc_func+0x2aac>
  4836e8:	01812783          	lw	a5,24(sp)
  4836ec:	001d1a13          	slli	s4,s10,0x1
  4836f0:	00000613          	li	a2,0
  4836f4:	ffea0f13          	addi	t5,s4,-2
  4836f8:	001f5d93          	srli	s11,t5,0x1
  4836fc:	001d8513          	addi	a0,s11,1
  483700:	00757693          	andi	a3,a0,7
  483704:	00fa05b3          	add	a1,s4,a5
  483708:	0a068463          	beqz	a3,4837b0 <calc_func+0x2a3c>
  48370c:	00100913          	li	s2,1
  483710:	09268663          	beq	a3,s2,48379c <calc_func+0x2a28>
  483714:	00200b93          	li	s7,2
  483718:	07768a63          	beq	a3,s7,48378c <calc_func+0x2a18>
  48371c:	00300393          	li	t2,3
  483720:	04768e63          	beq	a3,t2,48377c <calc_func+0x2a08>
  483724:	00400093          	li	ra,4
  483728:	04168263          	beq	a3,ra,48376c <calc_func+0x29f8>
  48372c:	00500493          	li	s1,5
  483730:	02968663          	beq	a3,s1,48375c <calc_func+0x29e8>
  483734:	00600993          	li	s3,6
  483738:	01368a63          	beq	a3,s3,48374c <calc_func+0x29d8>
  48373c:	0007df83          	lhu	t6,0(a5)
  483740:	00278793          	addi	a5,a5,2
  483744:	416f8cb3          	sub	s9,t6,s6
  483748:	ff979f23          	sh	s9,-2(a5)
  48374c:	0007de03          	lhu	t3,0(a5)
  483750:	00278793          	addi	a5,a5,2
  483754:	416e0c33          	sub	s8,t3,s6
  483758:	ff879f23          	sh	s8,-2(a5)
  48375c:	0007d703          	lhu	a4,0(a5)
  483760:	00278793          	addi	a5,a5,2
  483764:	416708b3          	sub	a7,a4,s6
  483768:	ff179f23          	sh	a7,-2(a5)
  48376c:	0007da83          	lhu	s5,0(a5)
  483770:	00278793          	addi	a5,a5,2
  483774:	416a8833          	sub	a6,s5,s6
  483778:	ff079f23          	sh	a6,-2(a5)
  48377c:	0007d303          	lhu	t1,0(a5)
  483780:	00278793          	addi	a5,a5,2
  483784:	41630eb3          	sub	t4,t1,s6
  483788:	ffd79f23          	sh	t4,-2(a5)
  48378c:	0007df03          	lhu	t5,0(a5)
  483790:	00278793          	addi	a5,a5,2
  483794:	416f0db3          	sub	s11,t5,s6
  483798:	ffb79f23          	sh	s11,-2(a5)
  48379c:	0007d503          	lhu	a0,0(a5)
  4837a0:	00278793          	addi	a5,a5,2
  4837a4:	416506b3          	sub	a3,a0,s6
  4837a8:	fed79f23          	sh	a3,-2(a5)
  4837ac:	06f58663          	beq	a1,a5,483818 <calc_func+0x2aa4>
  4837b0:	0007d903          	lhu	s2,0(a5)
  4837b4:	0027db83          	lhu	s7,2(a5)
  4837b8:	0047d383          	lhu	t2,4(a5)
  4837bc:	0067d083          	lhu	ra,6(a5)
  4837c0:	0087d483          	lhu	s1,8(a5)
  4837c4:	00a7d983          	lhu	s3,10(a5)
  4837c8:	00c7dc83          	lhu	s9,12(a5)
  4837cc:	00e7dc03          	lhu	s8,14(a5)
  4837d0:	41690fb3          	sub	t6,s2,s6
  4837d4:	416b8733          	sub	a4,s7,s6
  4837d8:	416388b3          	sub	a7,t2,s6
  4837dc:	41608e33          	sub	t3,ra,s6
  4837e0:	41648ab3          	sub	s5,s1,s6
  4837e4:	41698833          	sub	a6,s3,s6
  4837e8:	416c8333          	sub	t1,s9,s6
  4837ec:	416c0eb3          	sub	t4,s8,s6
  4837f0:	01f79023          	sh	t6,0(a5)
  4837f4:	00e79123          	sh	a4,2(a5)
  4837f8:	01179223          	sh	a7,4(a5)
  4837fc:	01c79323          	sh	t3,6(a5)
  483800:	01579423          	sh	s5,8(a5)
  483804:	01079523          	sh	a6,10(a5)
  483808:	00679623          	sh	t1,12(a5)
  48380c:	01d79723          	sh	t4,14(a5)
  483810:	01078793          	addi	a5,a5,16
  483814:	f8f59ee3          	bne	a1,a5,4837b0 <calc_func+0x2a3c>
  483818:	00160613          	addi	a2,a2,1
  48381c:	eccd1ce3          	bne	s10,a2,4836f4 <calc_func+0x2980>
  483820:	0082cb33          	xor	s6,t0,s0
  483824:	0ff2fd13          	andi	s10,t0,255
  483828:	001b7a13          	andi	s4,s6,1
  48382c:	001d5593          	srli	a1,s10,0x1
  483830:	00145793          	srli	a5,s0,0x1
  483834:	000a0c63          	beqz	s4,48384c <calc_func+0x2ad8>
  483838:	ffffa437          	lui	s0,0xffffa
  48383c:	00140f13          	addi	t5,s0,1 # ffffa001 <__C_STACK_TOP__+0xffb5a001>
  483840:	01e7cdb3          	xor	s11,a5,t5
  483844:	010d9513          	slli	a0,s11,0x10
  483848:	01055793          	srli	a5,a0,0x10
  48384c:	00b7c6b3          	xor	a3,a5,a1
  483850:	0016f913          	andi	s2,a3,1
  483854:	002d5b93          	srli	s7,s10,0x2
  483858:	0017dc93          	srli	s9,a5,0x1
  48385c:	00090c63          	beqz	s2,483874 <calc_func+0x2b00>
  483860:	ffffa3b7          	lui	t2,0xffffa
  483864:	00138093          	addi	ra,t2,1 # ffffa001 <__C_STACK_TOP__+0xffb5a001>
  483868:	001cc4b3          	xor	s1,s9,ra
  48386c:	01049993          	slli	s3,s1,0x10
  483870:	0109dc93          	srli	s9,s3,0x10
  483874:	017ccc33          	xor	s8,s9,s7
  483878:	001c7f93          	andi	t6,s8,1
  48387c:	003d5713          	srli	a4,s10,0x3
  483880:	001cd313          	srli	t1,s9,0x1
  483884:	000f8c63          	beqz	t6,48389c <calc_func+0x2b28>
  483888:	ffffa8b7          	lui	a7,0xffffa
  48388c:	00188e13          	addi	t3,a7,1 # ffffa001 <__C_STACK_TOP__+0xffb5a001>
  483890:	01c34ab3          	xor	s5,t1,t3
  483894:	010a9813          	slli	a6,s5,0x10
  483898:	01085313          	srli	t1,a6,0x10
  48389c:	00e34eb3          	xor	t4,t1,a4
  4838a0:	001efb13          	andi	s6,t4,1
  4838a4:	004d5613          	srli	a2,s10,0x4
  4838a8:	00135d93          	srli	s11,t1,0x1
  4838ac:	000b0c63          	beqz	s6,4838c4 <calc_func+0x2b50>
  4838b0:	ffffaa37          	lui	s4,0xffffa
  4838b4:	001a0593          	addi	a1,s4,1 # ffffa001 <__C_STACK_TOP__+0xffb5a001>
  4838b8:	00bdc433          	xor	s0,s11,a1
  4838bc:	01041f13          	slli	t5,s0,0x10
  4838c0:	010f5d93          	srli	s11,t5,0x10
  4838c4:	00cdc533          	xor	a0,s11,a2
  4838c8:	00157693          	andi	a3,a0,1
  4838cc:	005d5913          	srli	s2,s10,0x5
  4838d0:	001dd493          	srli	s1,s11,0x1
  4838d4:	00068c63          	beqz	a3,4838ec <calc_func+0x2b78>
  4838d8:	ffffabb7          	lui	s7,0xffffa
  4838dc:	001b8393          	addi	t2,s7,1 # ffffa001 <__C_STACK_TOP__+0xffb5a001>
  4838e0:	0074c7b3          	xor	a5,s1,t2
  4838e4:	01079093          	slli	ra,a5,0x10
  4838e8:	0100d493          	srli	s1,ra,0x10
  4838ec:	0124c9b3          	xor	s3,s1,s2
  4838f0:	0019fc93          	andi	s9,s3,1
  4838f4:	006d5c13          	srli	s8,s10,0x6
  4838f8:	0014da93          	srli	s5,s1,0x1
  4838fc:	000c8c63          	beqz	s9,483914 <calc_func+0x2ba0>
  483900:	ffffafb7          	lui	t6,0xffffa
  483904:	001f8713          	addi	a4,t6,1 # ffffa001 <__C_STACK_TOP__+0xffb5a001>
  483908:	00eac8b3          	xor	a7,s5,a4
  48390c:	01089e13          	slli	t3,a7,0x10
  483910:	010e5a93          	srli	s5,t3,0x10
  483914:	015c4833          	xor	a6,s8,s5
  483918:	00187313          	andi	t1,a6,1
  48391c:	007d5d13          	srli	s10,s10,0x7
  483920:	001ad593          	srli	a1,s5,0x1
  483924:	00030c63          	beqz	t1,48393c <calc_func+0x2bc8>
  483928:	ffffaeb7          	lui	t4,0xffffa
  48392c:	001e8b13          	addi	s6,t4,1 # ffffa001 <__C_STACK_TOP__+0xffb5a001>
  483930:	0165c633          	xor	a2,a1,s6
  483934:	01061a13          	slli	s4,a2,0x10
  483938:	010a5593          	srli	a1,s4,0x10
  48393c:	0015f413          	andi	s0,a1,1
  483940:	0015d913          	srli	s2,a1,0x1
  483944:	01a40c63          	beq	s0,s10,48395c <calc_func+0x2be8>
  483948:	ffffaf37          	lui	t5,0xffffa
  48394c:	001f0d93          	addi	s11,t5,1 # ffffa001 <__C_STACK_TOP__+0xffb5a001>
  483950:	01b94533          	xor	a0,s2,s11
  483954:	01051693          	slli	a3,a0,0x10
  483958:	0106d913          	srli	s2,a3,0x10
  48395c:	0082d293          	srli	t0,t0,0x8
  483960:	0122cbb3          	xor	s7,t0,s2
  483964:	0ff2f393          	andi	t2,t0,255
  483968:	001bf093          	andi	ra,s7,1
  48396c:	0013d493          	srli	s1,t2,0x1
  483970:	00195f93          	srli	t6,s2,0x1
  483974:	00008c63          	beqz	ra,48398c <calc_func+0x2c18>
  483978:	ffffa9b7          	lui	s3,0xffffa
  48397c:	00198c93          	addi	s9,s3,1 # ffffa001 <__C_STACK_TOP__+0xffb5a001>
  483980:	019fc7b3          	xor	a5,t6,s9
  483984:	01079c13          	slli	s8,a5,0x10
  483988:	010c5f93          	srli	t6,s8,0x10
  48398c:	009fc733          	xor	a4,t6,s1
  483990:	00177893          	andi	a7,a4,1
  483994:	0023de13          	srli	t3,t2,0x2
  483998:	001fde93          	srli	t4,t6,0x1
  48399c:	00088c63          	beqz	a7,4839b4 <calc_func+0x2c40>
  4839a0:	ffffaab7          	lui	s5,0xffffa
  4839a4:	001a8813          	addi	a6,s5,1 # ffffa001 <__C_STACK_TOP__+0xffb5a001>
  4839a8:	010ec333          	xor	t1,t4,a6
  4839ac:	01031d13          	slli	s10,t1,0x10
  4839b0:	010d5e93          	srli	t4,s10,0x10
  4839b4:	01de4b33          	xor	s6,t3,t4
  4839b8:	001b7a13          	andi	s4,s6,1
  4839bc:	0033d613          	srli	a2,t2,0x3
  4839c0:	001ed513          	srli	a0,t4,0x1
  4839c4:	000a0c63          	beqz	s4,4839dc <calc_func+0x2c68>
  4839c8:	ffffa5b7          	lui	a1,0xffffa
  4839cc:	00158413          	addi	s0,a1,1 # ffffa001 <__C_STACK_TOP__+0xffb5a001>
  4839d0:	00854f33          	xor	t5,a0,s0
  4839d4:	010f1d93          	slli	s11,t5,0x10
  4839d8:	010dd513          	srli	a0,s11,0x10
  4839dc:	00a646b3          	xor	a3,a2,a0
  4839e0:	0016f913          	andi	s2,a3,1
  4839e4:	0043d293          	srli	t0,t2,0x4
  4839e8:	00155c93          	srli	s9,a0,0x1
  4839ec:	00090c63          	beqz	s2,483a04 <calc_func+0x2c90>
  4839f0:	ffffabb7          	lui	s7,0xffffa
  4839f4:	001b8093          	addi	ra,s7,1 # ffffa001 <__C_STACK_TOP__+0xffb5a001>
  4839f8:	001cc4b3          	xor	s1,s9,ra
  4839fc:	01049993          	slli	s3,s1,0x10
  483a00:	0109dc93          	srli	s9,s3,0x10
  483a04:	005cc7b3          	xor	a5,s9,t0
  483a08:	0017fc13          	andi	s8,a5,1
  483a0c:	0053df93          	srli	t6,t2,0x5
  483a10:	001cd813          	srli	a6,s9,0x1
  483a14:	000c0c63          	beqz	s8,483a2c <calc_func+0x2cb8>
  483a18:	ffffa737          	lui	a4,0xffffa
  483a1c:	00170893          	addi	a7,a4,1 # ffffa001 <__C_STACK_TOP__+0xffb5a001>
  483a20:	01184e33          	xor	t3,a6,a7
  483a24:	010e1a93          	slli	s5,t3,0x10
  483a28:	010ad813          	srli	a6,s5,0x10
  483a2c:	01f84333          	xor	t1,a6,t6
  483a30:	00137d13          	andi	s10,t1,1
  483a34:	0063de93          	srli	t4,t2,0x6
  483a38:	00185413          	srli	s0,a6,0x1
  483a3c:	000d0c63          	beqz	s10,483a54 <calc_func+0x2ce0>
  483a40:	ffffab37          	lui	s6,0xffffa
  483a44:	001b0a13          	addi	s4,s6,1 # ffffa001 <__C_STACK_TOP__+0xffb5a001>
  483a48:	01444633          	xor	a2,s0,s4
  483a4c:	01061593          	slli	a1,a2,0x10
  483a50:	0105d413          	srli	s0,a1,0x10
  483a54:	01d44f33          	xor	t5,s0,t4
  483a58:	001f7d93          	andi	s11,t5,1
  483a5c:	0073d393          	srli	t2,t2,0x7
  483a60:	00145b93          	srli	s7,s0,0x1
  483a64:	000d8c63          	beqz	s11,483a7c <calc_func+0x2d08>
  483a68:	ffffa537          	lui	a0,0xffffa
  483a6c:	00150693          	addi	a3,a0,1 # ffffa001 <__C_STACK_TOP__+0xffb5a001>
  483a70:	00dbc933          	xor	s2,s7,a3
  483a74:	01091293          	slli	t0,s2,0x10
  483a78:	0102db93          	srli	s7,t0,0x10
  483a7c:	001bf093          	andi	ra,s7,1
  483a80:	001bdc13          	srli	s8,s7,0x1
  483a84:	00708c63          	beq	ra,t2,483a9c <calc_func+0x2d28>
  483a88:	ffffa4b7          	lui	s1,0xffffa
  483a8c:	00148993          	addi	s3,s1,1 # ffffa001 <__C_STACK_TOP__+0xffb5a001>
  483a90:	013c4cb3          	xor	s9,s8,s3
  483a94:	010c9793          	slli	a5,s9,0x10
  483a98:	0107dc13          	srli	s8,a5,0x10
  483a9c:	00812f83          	lw	t6,8(sp)
  483aa0:	010c1713          	slli	a4,s8,0x10
  483aa4:	41075813          	srai	a6,a4,0x10
  483aa8:	03cfd883          	lhu	a7,60(t6)
  483aac:	060880e3          	beqz	a7,48430c <calc_func+0x3598>
  483ab0:	038fd403          	lhu	s0,56(t6)
  483ab4:	b40fd06f          	j	480df4 <calc_func+0x80>
  483ab8:	00b32333          	slt	t1,t1,a1
  483abc:	0046aa03          	lw	s4,4(a3)
  483ac0:	00628bb3          	add	s7,t0,t1
  483ac4:	010b9093          	slli	ra,s7,0x10
  483ac8:	4100d913          	srai	s2,ra,0x10
  483acc:	01091493          	slli	s1,s2,0x10
  483ad0:	014e83b3          	add	t2,t4,s4
  483ad4:	00468693          	addi	a3,a3,4
  483ad8:	0104df93          	srli	t6,s1,0x10
  483adc:	1279da63          	ble	t2,s3,483c10 <calc_func+0x2e9c>
  483ae0:	00af8593          	addi	a1,t6,10
  483ae4:	0046a283          	lw	t0,4(a3)
  483ae8:	01059793          	slli	a5,a1,0x10
  483aec:	4107df13          	srai	t5,a5,0x10
  483af0:	00000393          	li	t2,0
  483af4:	010f1313          	slli	t1,t5,0x10
  483af8:	005380b3          	add	ra,t2,t0
  483afc:	01035b93          	srli	s7,t1,0x10
  483b00:	1219da63          	ble	ra,s3,483c34 <calc_func+0x2ec0>
  483b04:	00ab8a13          	addi	s4,s7,10
  483b08:	0086af83          	lw	t6,8(a3)
  483b0c:	010a1493          	slli	s1,s4,0x10
  483b10:	4104de93          	srai	t4,s1,0x10
  483b14:	00000093          	li	ra,0
  483b18:	010e9393          	slli	t2,t4,0x10
  483b1c:	01f08733          	add	a4,ra,t6
  483b20:	0103dd93          	srli	s11,t2,0x10
  483b24:	12e9da63          	ble	a4,s3,483c58 <calc_func+0x2ee4>
  483b28:	00ad8293          	addi	t0,s11,10
  483b2c:	00c6ab83          	lw	s7,12(a3)
  483b30:	01029313          	slli	t1,t0,0x10
  483b34:	41035793          	srai	a5,t1,0x10
  483b38:	00000713          	li	a4,0
  483b3c:	01079093          	slli	ra,a5,0x10
  483b40:	01770633          	add	a2,a4,s7
  483b44:	0100dc13          	srli	s8,ra,0x10
  483b48:	12c9da63          	ble	a2,s3,483c7c <calc_func+0x2f08>
  483b4c:	00ac0f93          	addi	t6,s8,10
  483b50:	0106ad83          	lw	s11,16(a3)
  483b54:	010f9393          	slli	t2,t6,0x10
  483b58:	4103d493          	srai	s1,t2,0x10
  483b5c:	00000613          	li	a2,0
  483b60:	01049713          	slli	a4,s1,0x10
  483b64:	01b60f33          	add	t5,a2,s11
  483b68:	01075e13          	srli	t3,a4,0x10
  483b6c:	13e9da63          	ble	t5,s3,483ca0 <calc_func+0x2f2c>
  483b70:	00ae0b93          	addi	s7,t3,10
  483b74:	0146ac03          	lw	s8,20(a3)
  483b78:	010b9093          	slli	ra,s7,0x10
  483b7c:	4100d313          	srai	t1,ra,0x10
  483b80:	00000f13          	li	t5,0
  483b84:	01031613          	slli	a2,t1,0x10
  483b88:	018f0eb3          	add	t4,t5,s8
  483b8c:	01065913          	srli	s2,a2,0x10
  483b90:	13d9da63          	ble	t4,s3,483cc4 <calc_func+0x2f50>
  483b94:	00a90d93          	addi	s11,s2,10
  483b98:	010d9713          	slli	a4,s11,0x10
  483b9c:	0186a303          	lw	t1,24(a3)
  483ba0:	41075393          	srai	t2,a4,0x10
  483ba4:	01039e13          	slli	t3,t2,0x10
  483ba8:	00000e93          	li	t4,0
  483bac:	010e5f13          	srli	t5,t3,0x10
  483bb0:	006e8e33          	add	t3,t4,t1
  483bb4:	13c9da63          	ble	t3,s3,483ce8 <calc_func+0x2f74>
  483bb8:	00af0b93          	addi	s7,t5,10
  483bbc:	010b9093          	slli	ra,s7,0x10
  483bc0:	4100d613          	srai	a2,ra,0x10
  483bc4:	00000e13          	li	t3,0
  483bc8:	01c68693          	addi	a3,a3,28
  483bcc:	00da9463          	bne	s5,a3,483bd4 <calc_func+0x2e60>
  483bd0:	bf1fe06f          	j	4827c0 <calc_func+0x1a4c>
  483bd4:	0006a583          	lw	a1,0(a3)
  483bd8:	01061793          	slli	a5,a2,0x10
  483bdc:	0107d293          	srli	t0,a5,0x10
  483be0:	00be0eb3          	add	t4,t3,a1
  483be4:	edd9dae3          	ble	t4,s3,483ab8 <calc_func+0x2d44>
  483be8:	0046aa03          	lw	s4,4(a3)
  483bec:	00a28613          	addi	a2,t0,10
  483bf0:	01061c13          	slli	s8,a2,0x10
  483bf4:	410c5913          	srai	s2,s8,0x10
  483bf8:	00000e93          	li	t4,0
  483bfc:	01091493          	slli	s1,s2,0x10
  483c00:	014e83b3          	add	t2,t4,s4
  483c04:	00468693          	addi	a3,a3,4
  483c08:	0104df93          	srli	t6,s1,0x10
  483c0c:	ec79cae3          	blt	s3,t2,483ae0 <calc_func+0x2d6c>
  483c10:	0145adb3          	slt	s11,a1,s4
  483c14:	01bf8733          	add	a4,t6,s11
  483c18:	0046a283          	lw	t0,4(a3)
  483c1c:	01071e13          	slli	t3,a4,0x10
  483c20:	410e5f13          	srai	t5,t3,0x10
  483c24:	010f1313          	slli	t1,t5,0x10
  483c28:	005380b3          	add	ra,t2,t0
  483c2c:	01035b93          	srli	s7,t1,0x10
  483c30:	ec19cae3          	blt	s3,ra,483b04 <calc_func+0x2d90>
  483c34:	005a2633          	slt	a2,s4,t0
  483c38:	00cb8c33          	add	s8,s7,a2
  483c3c:	0086af83          	lw	t6,8(a3)
  483c40:	010c1913          	slli	s2,s8,0x10
  483c44:	41095e93          	srai	t4,s2,0x10
  483c48:	010e9393          	slli	t2,t4,0x10
  483c4c:	01f08733          	add	a4,ra,t6
  483c50:	0103dd93          	srli	s11,t2,0x10
  483c54:	ece9cae3          	blt	s3,a4,483b28 <calc_func+0x2db4>
  483c58:	01f2ae33          	slt	t3,t0,t6
  483c5c:	01cd8f33          	add	t5,s11,t3
  483c60:	00c6ab83          	lw	s7,12(a3)
  483c64:	010f1593          	slli	a1,t5,0x10
  483c68:	4105d793          	srai	a5,a1,0x10
  483c6c:	01079093          	slli	ra,a5,0x10
  483c70:	01770633          	add	a2,a4,s7
  483c74:	0100dc13          	srli	s8,ra,0x10
  483c78:	ecc9cae3          	blt	s3,a2,483b4c <calc_func+0x2dd8>
  483c7c:	017fa933          	slt	s2,t6,s7
  483c80:	012c0eb3          	add	t4,s8,s2
  483c84:	0106ad83          	lw	s11,16(a3)
  483c88:	010e9a13          	slli	s4,t4,0x10
  483c8c:	410a5493          	srai	s1,s4,0x10
  483c90:	01049713          	slli	a4,s1,0x10
  483c94:	01b60f33          	add	t5,a2,s11
  483c98:	01075e13          	srli	t3,a4,0x10
  483c9c:	ede9cae3          	blt	s3,t5,483b70 <calc_func+0x2dfc>
  483ca0:	01bba5b3          	slt	a1,s7,s11
  483ca4:	00be07b3          	add	a5,t3,a1
  483ca8:	0146ac03          	lw	s8,20(a3)
  483cac:	01079293          	slli	t0,a5,0x10
  483cb0:	4102d313          	srai	t1,t0,0x10
  483cb4:	01031613          	slli	a2,t1,0x10
  483cb8:	018f0eb3          	add	t4,t5,s8
  483cbc:	01065913          	srli	s2,a2,0x10
  483cc0:	edd9cae3          	blt	s3,t4,483b94 <calc_func+0x2e20>
  483cc4:	018daa33          	slt	s4,s11,s8
  483cc8:	014904b3          	add	s1,s2,s4
  483ccc:	01049f93          	slli	t6,s1,0x10
  483cd0:	0186a303          	lw	t1,24(a3)
  483cd4:	410fd393          	srai	t2,t6,0x10
  483cd8:	01039e13          	slli	t3,t2,0x10
  483cdc:	010e5f13          	srli	t5,t3,0x10
  483ce0:	006e8e33          	add	t3,t4,t1
  483ce4:	edc9cae3          	blt	s3,t3,483bb8 <calc_func+0x2e44>
  483ce8:	006c25b3          	slt	a1,s8,t1
  483cec:	00bf07b3          	add	a5,t5,a1
  483cf0:	01079293          	slli	t0,a5,0x10
  483cf4:	4102d613          	srai	a2,t0,0x10
  483cf8:	ed1ff06f          	j	483bc8 <calc_func+0x2e54>
  483cfc:	019e2e33          	slt	t3,t3,s9
  483d00:	00462a83          	lw	s5,4(a2)
  483d04:	01c702b3          	add	t0,a4,t3
  483d08:	01029d93          	slli	s11,t0,0x10
  483d0c:	410dd493          	srai	s1,s11,0x10
  483d10:	01049c13          	slli	s8,s1,0x10
  483d14:	015f83b3          	add	t2,t6,s5
  483d18:	00460613          	addi	a2,a2,4
  483d1c:	010c5b93          	srli	s7,s8,0x10
  483d20:	1279d863          	ble	t2,s3,483e50 <calc_func+0x30dc>
  483d24:	00ab8f13          	addi	t5,s7,10
  483d28:	00462283          	lw	t0,4(a2)
  483d2c:	010f1713          	slli	a4,t5,0x10
  483d30:	41075c93          	srai	s9,a4,0x10
  483d34:	00000393          	li	t2,0
  483d38:	010c9e13          	slli	t3,s9,0x10
  483d3c:	00538533          	add	a0,t2,t0
  483d40:	010e5d93          	srli	s11,t3,0x10
  483d44:	12a9d863          	ble	a0,s3,483e74 <calc_func+0x3100>
  483d48:	00ad8c13          	addi	s8,s11,10
  483d4c:	00862383          	lw	t2,8(a2)
  483d50:	010c1b93          	slli	s7,s8,0x10
  483d54:	410bda93          	srai	s5,s7,0x10
  483d58:	00000513          	li	a0,0
  483d5c:	010a9a13          	slli	s4,s5,0x10
  483d60:	00750933          	add	s2,a0,t2
  483d64:	010a5793          	srli	a5,s4,0x10
  483d68:	1329d863          	ble	s2,s3,483e98 <calc_func+0x3124>
  483d6c:	00a78e13          	addi	t3,a5,10
  483d70:	00c62e83          	lw	t4,12(a2)
  483d74:	010e1d93          	slli	s11,t3,0x10
  483d78:	410dd293          	srai	t0,s11,0x10
  483d7c:	00000913          	li	s2,0
  483d80:	01029513          	slli	a0,t0,0x10
  483d84:	01d90fb3          	add	t6,s2,t4
  483d88:	01055493          	srli	s1,a0,0x10
  483d8c:	13f9d863          	ble	t6,s3,483ebc <calc_func+0x3148>
  483d90:	00a48a13          	addi	s4,s1,10
  483d94:	01062903          	lw	s2,16(a2)
  483d98:	010a1793          	slli	a5,s4,0x10
  483d9c:	4107d393          	srai	t2,a5,0x10
  483da0:	00000f93          	li	t6,0
  483da4:	01039c93          	slli	s9,t2,0x10
  483da8:	012f8733          	add	a4,t6,s2
  483dac:	010cdf13          	srli	t5,s9,0x10
  483db0:	12e9d863          	ble	a4,s3,483ee0 <calc_func+0x316c>
  483db4:	00af0513          	addi	a0,t5,10
  483db8:	01462f83          	lw	t6,20(a2)
  483dbc:	01051493          	slli	s1,a0,0x10
  483dc0:	4104de93          	srai	t4,s1,0x10
  483dc4:	00000713          	li	a4,0
  483dc8:	010e9a93          	slli	s5,t4,0x10
  483dcc:	01f70bb3          	add	s7,a4,t6
  483dd0:	010adc13          	srli	s8,s5,0x10
  483dd4:	1379d863          	ble	s7,s3,483f04 <calc_func+0x3190>
  483dd8:	00ac0c93          	addi	s9,s8,10
  483ddc:	01862e03          	lw	t3,24(a2)
  483de0:	010c9f13          	slli	t5,s9,0x10
  483de4:	410f5913          	srai	s2,t5,0x10
  483de8:	00000b93          	li	s7,0
  483dec:	01091713          	slli	a4,s2,0x10
  483df0:	01cb8eb3          	add	t4,s7,t3
  483df4:	01075293          	srli	t0,a4,0x10
  483df8:	13d9d863          	ble	t4,s3,483f28 <calc_func+0x31b4>
  483dfc:	00a28f93          	addi	t6,t0,10
  483e00:	010f9a93          	slli	s5,t6,0x10
  483e04:	410ad793          	srai	a5,s5,0x10
  483e08:	00000e93          	li	t4,0
  483e0c:	01c60613          	addi	a2,a2,28
  483e10:	82b60a63          	beq	a2,a1,482e44 <calc_func+0x20d0>
  483e14:	00062c83          	lw	s9,0(a2)
  483e18:	01079f13          	slli	t5,a5,0x10
  483e1c:	010f5713          	srli	a4,t5,0x10
  483e20:	019e8fb3          	add	t6,t4,s9
  483e24:	edf9dce3          	ble	t6,s3,483cfc <calc_func+0x2f88>
  483e28:	00462a83          	lw	s5,4(a2)
  483e2c:	00a70513          	addi	a0,a4,10
  483e30:	01051e93          	slli	t4,a0,0x10
  483e34:	410ed493          	srai	s1,t4,0x10
  483e38:	00000f93          	li	t6,0
  483e3c:	01049c13          	slli	s8,s1,0x10
  483e40:	015f83b3          	add	t2,t6,s5
  483e44:	00460613          	addi	a2,a2,4
  483e48:	010c5b93          	srli	s7,s8,0x10
  483e4c:	ec79cce3          	blt	s3,t2,483d24 <calc_func+0x2fb0>
  483e50:	015caa33          	slt	s4,s9,s5
  483e54:	014b87b3          	add	a5,s7,s4
  483e58:	00462283          	lw	t0,4(a2)
  483e5c:	01079913          	slli	s2,a5,0x10
  483e60:	41095c93          	srai	s9,s2,0x10
  483e64:	010c9e13          	slli	t3,s9,0x10
  483e68:	00538533          	add	a0,t2,t0
  483e6c:	010e5d93          	srli	s11,t3,0x10
  483e70:	eca9cce3          	blt	s3,a0,483d48 <calc_func+0x2fd4>
  483e74:	005aaeb3          	slt	t4,s5,t0
  483e78:	01dd84b3          	add	s1,s11,t4
  483e7c:	00862383          	lw	t2,8(a2)
  483e80:	01049f93          	slli	t6,s1,0x10
  483e84:	410fda93          	srai	s5,t6,0x10
  483e88:	010a9a13          	slli	s4,s5,0x10
  483e8c:	00750933          	add	s2,a0,t2
  483e90:	010a5793          	srli	a5,s4,0x10
  483e94:	ed29cce3          	blt	s3,s2,483d6c <calc_func+0x2ff8>
  483e98:	0072acb3          	slt	s9,t0,t2
  483e9c:	01978f33          	add	t5,a5,s9
  483ea0:	00c62e83          	lw	t4,12(a2)
  483ea4:	010f1713          	slli	a4,t5,0x10
  483ea8:	41075293          	srai	t0,a4,0x10
  483eac:	01029513          	slli	a0,t0,0x10
  483eb0:	01d90fb3          	add	t6,s2,t4
  483eb4:	01055493          	srli	s1,a0,0x10
  483eb8:	edf9cce3          	blt	s3,t6,483d90 <calc_func+0x301c>
  483ebc:	01d3aab3          	slt	s5,t2,t4
  483ec0:	01548c33          	add	s8,s1,s5
  483ec4:	01062903          	lw	s2,16(a2)
  483ec8:	010c1b93          	slli	s7,s8,0x10
  483ecc:	410bd393          	srai	t2,s7,0x10
  483ed0:	01039c93          	slli	s9,t2,0x10
  483ed4:	012f8733          	add	a4,t6,s2
  483ed8:	010cdf13          	srli	t5,s9,0x10
  483edc:	ece9cce3          	blt	s3,a4,483db4 <calc_func+0x3040>
  483ee0:	012ea2b3          	slt	t0,t4,s2
  483ee4:	005f0e33          	add	t3,t5,t0
  483ee8:	01462f83          	lw	t6,20(a2)
  483eec:	010e1d93          	slli	s11,t3,0x10
  483ef0:	410dde93          	srai	t4,s11,0x10
  483ef4:	010e9a93          	slli	s5,t4,0x10
  483ef8:	01f70bb3          	add	s7,a4,t6
  483efc:	010adc13          	srli	s8,s5,0x10
  483f00:	ed79cce3          	blt	s3,s7,483dd8 <calc_func+0x3064>
  483f04:	01f923b3          	slt	t2,s2,t6
  483f08:	007c0a33          	add	s4,s8,t2
  483f0c:	01862e03          	lw	t3,24(a2)
  483f10:	010a1793          	slli	a5,s4,0x10
  483f14:	4107d913          	srai	s2,a5,0x10
  483f18:	01091713          	slli	a4,s2,0x10
  483f1c:	01cb8eb3          	add	t4,s7,t3
  483f20:	01075293          	srli	t0,a4,0x10
  483f24:	edd9cce3          	blt	s3,t4,483dfc <calc_func+0x3088>
  483f28:	01cfadb3          	slt	s11,t6,t3
  483f2c:	01b28533          	add	a0,t0,s11
  483f30:	01051493          	slli	s1,a0,0x10
  483f34:	4104d793          	srai	a5,s1,0x10
  483f38:	ed5ff06f          	j	483e0c <calc_func+0x3098>
  483f3c:	01f8a8b3          	slt	a7,a7,t6
  483f40:	0046af03          	lw	t5,4(a3)
  483f44:	01170e33          	add	t3,a4,a7
  483f48:	010e1c13          	slli	s8,t3,0x10
  483f4c:	410c5e93          	srai	t4,s8,0x10
  483f50:	010e9793          	slli	a5,t4,0x10
  483f54:	01e28db3          	add	s11,t0,t5
  483f58:	00468693          	addi	a3,a3,4
  483f5c:	0107da13          	srli	s4,a5,0x10
  483f60:	13b9d863          	ble	s11,s3,484090 <calc_func+0x331c>
  483f64:	00aa0713          	addi	a4,s4,10
  483f68:	0046ae03          	lw	t3,4(a3)
  483f6c:	01071893          	slli	a7,a4,0x10
  483f70:	4108dc93          	srai	s9,a7,0x10
  483f74:	00000d93          	li	s11,0
  483f78:	010c9c13          	slli	s8,s9,0x10
  483f7c:	01cd8833          	add	a6,s11,t3
  483f80:	010c5a93          	srli	s5,s8,0x10
  483f84:	1309d863          	ble	a6,s3,4840b4 <calc_func+0x3340>
  483f88:	00aa8a13          	addi	s4,s5,10
  483f8c:	0086a483          	lw	s1,8(a3)
  483f90:	010a1d93          	slli	s11,s4,0x10
  483f94:	410dd793          	srai	a5,s11,0x10
  483f98:	00000813          	li	a6,0
  483f9c:	01079313          	slli	t1,a5,0x10
  483fa0:	00980cb3          	add	s9,a6,s1
  483fa4:	01035f93          	srli	t6,t1,0x10
  483fa8:	1399d863          	ble	s9,s3,4840d8 <calc_func+0x3364>
  483fac:	00af8a93          	addi	s5,t6,10
  483fb0:	00c6ae83          	lw	t4,12(a3)
  483fb4:	010a9813          	slli	a6,s5,0x10
  483fb8:	41085c13          	srai	s8,a6,0x10
  483fbc:	00000c93          	li	s9,0
  483fc0:	010c1293          	slli	t0,s8,0x10
  483fc4:	01dc8a33          	add	s4,s9,t4
  483fc8:	0102df13          	srli	t5,t0,0x10
  483fcc:	1349d863          	ble	s4,s3,4840fc <calc_func+0x3388>
  483fd0:	00af0f93          	addi	t6,t5,10
  483fd4:	0106a703          	lw	a4,16(a3)
  483fd8:	010f9c93          	slli	s9,t6,0x10
  483fdc:	410cd313          	srai	t1,s9,0x10
  483fe0:	00000a13          	li	s4,0
  483fe4:	01031893          	slli	a7,t1,0x10
  483fe8:	00ea0c33          	add	s8,s4,a4
  483fec:	0108de13          	srli	t3,a7,0x10
  483ff0:	1389d863          	ble	s8,s3,484120 <calc_func+0x33ac>
  483ff4:	00ae0f13          	addi	t5,t3,10
  483ff8:	0146ad83          	lw	s11,20(a3)
  483ffc:	010f1a13          	slli	s4,t5,0x10
  484000:	410a5293          	srai	t0,s4,0x10
  484004:	00000c13          	li	s8,0
  484008:	01029793          	slli	a5,t0,0x10
  48400c:	01bc0333          	add	t1,s8,s11
  484010:	0107d493          	srli	s1,a5,0x10
  484014:	1269d863          	ble	t1,s3,484144 <calc_func+0x33d0>
  484018:	00a48893          	addi	a7,s1,10
  48401c:	01089c13          	slli	s8,a7,0x10
  484020:	0186a883          	lw	a7,24(a3)
  484024:	410c5e13          	srai	t3,s8,0x10
  484028:	00000313          	li	t1,0
  48402c:	010e1a93          	slli	s5,t3,0x10
  484030:	01130333          	add	t1,t1,a7
  484034:	010ad813          	srli	a6,s5,0x10
  484038:	1269d863          	ble	t1,s3,484168 <calc_func+0x33f4>
  48403c:	00a80d93          	addi	s11,a6,10
  484040:	010d9793          	slli	a5,s11,0x10
  484044:	4107da13          	srai	s4,a5,0x10
  484048:	00000313          	li	t1,0
  48404c:	01c68693          	addi	a3,a3,28
  484050:	be768463          	beq	a3,t2,483438 <calc_func+0x26c4>
  484054:	0006af83          	lw	t6,0(a3)
  484058:	010a1c93          	slli	s9,s4,0x10
  48405c:	010cd713          	srli	a4,s9,0x10
  484060:	01f302b3          	add	t0,t1,t6
  484064:	ec59dce3          	ble	t0,s3,483f3c <calc_func+0x31c8>
  484068:	0046af03          	lw	t5,4(a3)
  48406c:	00a70a93          	addi	s5,a4,10
  484070:	010a9813          	slli	a6,s5,0x10
  484074:	41085e93          	srai	t4,a6,0x10
  484078:	00000293          	li	t0,0
  48407c:	010e9793          	slli	a5,t4,0x10
  484080:	01e28db3          	add	s11,t0,t5
  484084:	00468693          	addi	a3,a3,4
  484088:	0107da13          	srli	s4,a5,0x10
  48408c:	edb9cce3          	blt	s3,s11,483f64 <calc_func+0x31f0>
  484090:	01efa333          	slt	t1,t6,t5
  484094:	006a04b3          	add	s1,s4,t1
  484098:	0046ae03          	lw	t3,4(a3)
  48409c:	01049f93          	slli	t6,s1,0x10
  4840a0:	410fdc93          	srai	s9,t6,0x10
  4840a4:	010c9c13          	slli	s8,s9,0x10
  4840a8:	01cd8833          	add	a6,s11,t3
  4840ac:	010c5a93          	srli	s5,s8,0x10
  4840b0:	ed09cce3          	blt	s3,a6,483f88 <calc_func+0x3214>
  4840b4:	01cf2eb3          	slt	t4,t5,t3
  4840b8:	01da82b3          	add	t0,s5,t4
  4840bc:	0086a483          	lw	s1,8(a3)
  4840c0:	01029f13          	slli	t5,t0,0x10
  4840c4:	410f5793          	srai	a5,t5,0x10
  4840c8:	01079313          	slli	t1,a5,0x10
  4840cc:	00980cb3          	add	s9,a6,s1
  4840d0:	01035f93          	srli	t6,t1,0x10
  4840d4:	ed99cce3          	blt	s3,s9,483fac <calc_func+0x3238>
  4840d8:	009e2733          	slt	a4,t3,s1
  4840dc:	00ef88b3          	add	a7,t6,a4
  4840e0:	00c6ae83          	lw	t4,12(a3)
  4840e4:	01089e13          	slli	t3,a7,0x10
  4840e8:	410e5c13          	srai	s8,t3,0x10
  4840ec:	010c1293          	slli	t0,s8,0x10
  4840f0:	01dc8a33          	add	s4,s9,t4
  4840f4:	0102df13          	srli	t5,t0,0x10
  4840f8:	ed49cce3          	blt	s3,s4,483fd0 <calc_func+0x325c>
  4840fc:	01d4a7b3          	slt	a5,s1,t4
  484100:	00ff0db3          	add	s11,t5,a5
  484104:	0106a703          	lw	a4,16(a3)
  484108:	010d9493          	slli	s1,s11,0x10
  48410c:	4104d313          	srai	t1,s1,0x10
  484110:	01031893          	slli	a7,t1,0x10
  484114:	00ea0c33          	add	s8,s4,a4
  484118:	0108de13          	srli	t3,a7,0x10
  48411c:	ed89cce3          	blt	s3,s8,483ff4 <calc_func+0x3280>
  484120:	00eeaab3          	slt	s5,t4,a4
  484124:	015e0833          	add	a6,t3,s5
  484128:	0146ad83          	lw	s11,20(a3)
  48412c:	01081e93          	slli	t4,a6,0x10
  484130:	410ed293          	srai	t0,t4,0x10
  484134:	01029793          	slli	a5,t0,0x10
  484138:	01bc0333          	add	t1,s8,s11
  48413c:	0107d493          	srli	s1,a5,0x10
  484140:	ec69cce3          	blt	s3,t1,484018 <calc_func+0x32a4>
  484144:	01b72fb3          	slt	t6,a4,s11
  484148:	01f48cb3          	add	s9,s1,t6
  48414c:	0186a883          	lw	a7,24(a3)
  484150:	010c9713          	slli	a4,s9,0x10
  484154:	41075e13          	srai	t3,a4,0x10
  484158:	010e1a93          	slli	s5,t3,0x10
  48415c:	01130333          	add	t1,t1,a7
  484160:	010ad813          	srli	a6,s5,0x10
  484164:	ec69cce3          	blt	s3,t1,48403c <calc_func+0x32c8>
  484168:	011daeb3          	slt	t4,s11,a7
  48416c:	01d802b3          	add	t0,a6,t4
  484170:	01029f13          	slli	t5,t0,0x10
  484174:	410f5a13          	srai	s4,t5,0x10
  484178:	ed5ff06f          	j	48404c <calc_func+0x32d8>
  48417c:	011ea7b3          	slt	a5,t4,a7
  484180:	00ff0a33          	add	s4,t5,a5
  484184:	010a1d93          	slli	s11,s4,0x10
  484188:	410dda13          	srai	s4,s11,0x10
  48418c:	aa4ff06f          	j	483430 <calc_func+0x26bc>
  484190:	006a23b3          	slt	t2,s4,t1
  484194:	007f8db3          	add	s11,t6,t2
  484198:	010d9713          	slli	a4,s11,0x10
  48419c:	41075613          	srai	a2,a4,0x10
  4841a0:	e14fe06f          	j	4827b4 <calc_func+0x1a40>
  4841a4:	005e20b3          	slt	ra,t3,t0
  4841a8:	001c8933          	add	s2,s9,ra
  4841ac:	01091f93          	slli	t6,s2,0x10
  4841b0:	410fdf93          	srai	t6,t6,0x10
  4841b4:	bc0fd06f          	j	481574 <calc_func+0x800>
  4841b8:	01cfabb3          	slt	s7,t6,t3
  4841bc:	017c03b3          	add	t2,s8,s7
  4841c0:	01039a13          	slli	s4,t2,0x10
  4841c4:	410a5793          	srai	a5,s4,0x10
  4841c8:	c75fe06f          	j	482e3c <calc_func+0x20c8>
  4841cc:	01feaeb3          	slt	t4,t4,t6
  4841d0:	01d70e33          	add	t3,a4,t4
  4841d4:	010e1c13          	slli	s8,t3,0x10
  4841d8:	410c5a13          	srai	s4,s8,0x10
  4841dc:	a28ff06f          	j	483404 <calc_func+0x2690>
  4841e0:	01efa533          	slt	a0,t6,t5
  4841e4:	00a28fb3          	add	t6,t0,a0
  4841e8:	010f9d93          	slli	s11,t6,0x10
  4841ec:	410dd793          	srai	a5,s11,0x10
  4841f0:	c1dfe06f          	j	482e0c <calc_func+0x2098>
  4841f4:	005a20b3          	slt	ra,s4,t0
  4841f8:	001b8c33          	add	s8,s7,ra
  4841fc:	010c1913          	slli	s2,s8,0x10
  484200:	41095613          	srai	a2,s2,0x10
  484204:	d80fe06f          	j	482784 <calc_func+0x1a10>
  484208:	00fe2a33          	slt	s4,t3,a5
  48420c:	01428ab3          	add	s5,t0,s4
  484210:	010a9b93          	slli	s7,s5,0x10
  484214:	410bdf93          	srai	t6,s7,0x10
  484218:	b2cfd06f          	j	481544 <calc_func+0x7d0>
  48421c:	018faa33          	slt	s4,t6,s8
  484220:	014387b3          	add	a5,t2,s4
  484224:	01079913          	slli	s2,a5,0x10
  484228:	41095793          	srai	a5,s2,0x10
  48422c:	bb1fe06f          	j	482ddc <calc_func+0x2068>
  484230:	01fa2733          	slt	a4,s4,t6
  484234:	00ed8f33          	add	t5,s11,a4
  484238:	010f1593          	slli	a1,t5,0x10
  48423c:	4105d613          	srai	a2,a1,0x10
  484240:	d14fe06f          	j	482754 <calc_func+0x19e0>
  484244:	005eaa33          	slt	s4,t4,t0
  484248:	01478db3          	add	s11,a5,s4
  48424c:	010d9893          	slli	a7,s11,0x10
  484250:	4108da13          	srai	s4,a7,0x10
  484254:	984ff06f          	j	4833d8 <calc_func+0x2664>
  484258:	019e2933          	slt	s2,t3,s9
  48425c:	01208fb3          	add	t6,ra,s2
  484260:	010f9313          	slli	t1,t6,0x10
  484264:	41035f93          	srai	t6,t1,0x10
  484268:	aacfd06f          	j	481514 <calc_func+0x7a0>
  48426c:	007e2ab3          	slt	s5,t3,t2
  484270:	015a0bb3          	add	s7,s4,s5
  484274:	010b9893          	slli	a7,s7,0x10
  484278:	4108df93          	srai	t6,a7,0x10
  48427c:	a68fd06f          	j	4814e4 <calc_func+0x770>
  484280:	01feaeb3          	slt	t4,t4,t6
  484284:	01d70e33          	add	t3,a4,t4
  484288:	010e1c13          	slli	s8,t3,0x10
  48428c:	410c5a13          	srai	s4,s8,0x10
  484290:	91cff06f          	j	4833ac <calc_func+0x2638>
  484294:	01efa533          	slt	a0,t6,t5
  484298:	00a28fb3          	add	t6,t0,a0
  48429c:	010f9d93          	slli	s11,t6,0x10
  4842a0:	410dd793          	srai	a5,s11,0x10
  4842a4:	b09fe06f          	j	482dac <calc_func+0x2038>
  4842a8:	017a2933          	slt	s2,s4,s7
  4842ac:	012c0a33          	add	s4,s8,s2
  4842b0:	010a1e93          	slli	t4,s4,0x10
  4842b4:	410ed613          	srai	a2,t4,0x10
  4842b8:	c6cfe06f          	j	482724 <calc_func+0x19b0>
  4842bc:	017fa7b3          	slt	a5,t6,s7
  4842c0:	00fa0933          	add	s2,s4,a5
  4842c4:	01091c93          	slli	s9,s2,0x10
  4842c8:	410cd793          	srai	a5,s9,0x10
  4842cc:	ab1fe06f          	j	482d7c <calc_func+0x2008>
  4842d0:	01ba25b3          	slt	a1,s4,s11
  4842d4:	00bf07b3          	add	a5,t5,a1
  4842d8:	01079313          	slli	t1,a5,0x10
  4842dc:	41035613          	srai	a2,t1,0x10
  4842e0:	c14fe06f          	j	4826f4 <calc_func+0x1980>
  4842e4:	005eaa33          	slt	s4,t4,t0
  4842e8:	01478db3          	add	s11,a5,s4
  4842ec:	010d9893          	slli	a7,s11,0x10
  4842f0:	4108da13          	srai	s4,a7,0x10
  4842f4:	88cff06f          	j	483380 <calc_func+0x260c>
  4842f8:	01ee2fb3          	slt	t6,t3,t5
  4842fc:	01f90333          	add	t1,s2,t6
  484300:	01031e13          	slli	t3,t1,0x10
  484304:	410e5f93          	srai	t6,t3,0x10
  484308:	9acfd06f          	j	4814b4 <calc_func+0x740>
  48430c:	000f8613          	mv	a2,t6
  484310:	038f9e23          	sh	s8,60(t6)
  484314:	03865403          	lhu	s0,56(a2)
  484318:	addfc06f          	j	480df4 <calc_func+0x80>
  48431c:	01feaeb3          	slt	t4,t4,t6
  484320:	01d70e33          	add	t3,a4,t4
  484324:	010e1c13          	slli	s8,t3,0x10
  484328:	410c5a13          	srai	s4,s8,0x10
  48432c:	828ff06f          	j	483354 <calc_func+0x25e0>
  484330:	007e2ab3          	slt	s5,t3,t2
  484334:	015a0bb3          	add	s7,s4,s5
  484338:	010b9893          	slli	a7,s7,0x10
  48433c:	4108df93          	srai	t6,a7,0x10
  484340:	944fd06f          	j	481484 <calc_func+0x710>
  484344:	00efafb3          	slt	t6,t6,a4
  484348:	01f50db3          	add	s11,a0,t6
  48434c:	010d9493          	slli	s1,s11,0x10
  484350:	4104d793          	srai	a5,s1,0x10
  484354:	9f9fe06f          	j	482d4c <calc_func+0x1fd8>
  484358:	001a2a33          	slt	s4,s4,ra
  48435c:	01490eb3          	add	t4,s2,s4
  484360:	010e9493          	slli	s1,t4,0x10
  484364:	4104d613          	srai	a2,s1,0x10
  484368:	b5cfe06f          	j	4826c4 <calc_func+0x1950>
  48436c:	01432333          	slt	t1,t1,s4
  484370:	006782b3          	add	t0,a5,t1
  484374:	01029613          	slli	a2,t0,0x10
  484378:	41065613          	srai	a2,a2,0x10
  48437c:	b1cfe06f          	j	482698 <calc_func+0x1924>
  484380:	01fe2933          	slt	s2,t3,t6
  484384:	01260cb3          	add	s9,a2,s2
  484388:	010c9e13          	slli	t3,s9,0x10
  48438c:	410e5793          	srai	a5,t3,0x10
  484390:	991fe06f          	j	482d20 <calc_func+0x1fac>
  484394:	012e2e33          	slt	t3,t3,s2
  484398:	01c30db3          	add	s11,t1,t3
  48439c:	010d9793          	slli	a5,s11,0x10
  4843a0:	4107df93          	srai	t6,a5,0x10
  4843a4:	8b0fd06f          	j	481454 <calc_func+0x6e0>
  4843a8:	01d8aa33          	slt	s4,a7,t4
  4843ac:	01478db3          	add	s11,a5,s4
  4843b0:	010d9893          	slli	a7,s11,0x10
  4843b4:	4108da13          	srai	s4,a7,0x10
  4843b8:	f75fe06f          	j	48332c <calc_func+0x25b8>
  4843bc:	00000393          	li	t2,0
  4843c0:	00000313          	li	t1,0
  4843c4:	00000a93          	li	s5,0
  4843c8:	e41fd06f          	j	482208 <calc_func+0x1494>
  4843cc:	00000993          	li	s3,0
  4843d0:	888ff06f          	j	483458 <calc_func+0x26e4>
  4843d4:	00000093          	li	ra,0
  4843d8:	00000813          	li	a6,0
  4843dc:	a85fe06f          	j	482e60 <calc_func+0x20ec>
  4843e0:	00000d93          	li	s11,0
  4843e4:	00000293          	li	t0,0
  4843e8:	bf4fe06f          	j	4827dc <calc_func+0x1a68>
  4843ec:	000a4283          	lbu	t0,0(s4)
  4843f0:	00028463          	beqz	t0,4843f8 <calc_func+0x3684>
  4843f4:	cd8fd06f          	j	4818cc <calc_func+0xb58>
  4843f8:	d50fd06f          	j	481948 <calc_func+0xbd4>

004843fc <cmp_complex>:
  4843fc:	ff010113          	addi	sp,sp,-16
  484400:	01212023          	sw	s2,0(sp)
  484404:	00058913          	mv	s2,a1
  484408:	00060593          	mv	a1,a2
  48440c:	00112623          	sw	ra,12(sp)
  484410:	00812423          	sw	s0,8(sp)
  484414:	00912223          	sw	s1,4(sp)
  484418:	00060413          	mv	s0,a2
  48441c:	959fc0ef          	jal	ra,480d74 <calc_func>
  484420:	00050493          	mv	s1,a0
  484424:	00040593          	mv	a1,s0
  484428:	00090513          	mv	a0,s2
  48442c:	949fc0ef          	jal	ra,480d74 <calc_func>
  484430:	00c12083          	lw	ra,12(sp)
  484434:	00812403          	lw	s0,8(sp)
  484438:	40a48533          	sub	a0,s1,a0
  48443c:	00012903          	lw	s2,0(sp)
  484440:	00412483          	lw	s1,4(sp)
  484444:	01010113          	addi	sp,sp,16
  484448:	00008067          	ret

0048444c <vprintfmt.constprop.3>:
  48444c:	eb010113          	addi	sp,sp,-336
  484450:	15212023          	sw	s2,320(sp)
  484454:	14112623          	sw	ra,332(sp)
  484458:	14812423          	sw	s0,328(sp)
  48445c:	13512a23          	sw	s5,308(sp)
  484460:	06100093          	li	ra,97
  484464:	00020a93          	mv	s5,tp
  484468:	13312e23          	sw	s3,316(sp)
  48446c:	11b12e23          	sw	s11,284(sp)
  484470:	14912223          	sw	s1,324(sp)
  484474:	13412c23          	sw	s4,312(sp)
  484478:	13612823          	sw	s6,304(sp)
  48447c:	13712623          	sw	s7,300(sp)
  484480:	13812423          	sw	s8,296(sp)
  484484:	13912223          	sw	s9,292(sp)
  484488:	13a12023          	sw	s10,288(sp)
  48448c:	00f12223          	sw	a5,4(sp)
  484490:	00050d93          	mv	s11,a0
  484494:	00b12423          	sw	a1,8(sp)
  484498:	00112623          	sw	ra,12(sp)
  48449c:	040a8993          	addi	s3,s5,64
  4844a0:	000dc283          	lbu	t0,0(s11)
  4844a4:	02500713          	li	a4,37
  4844a8:	12e28c63          	beq	t0,a4,4845e0 <vprintfmt.constprop.3+0x194>
  4844ac:	18028663          	beqz	t0,484638 <vprintfmt.constprop.3+0x1ec>
  4844b0:	04022303          	lw	t1,64(tp) # 40 <buflen.1776>
  4844b4:	00a00493          	li	s1,10
  4844b8:	001d8d93          	addi	s11,s11,1
  4844bc:	00130713          	addi	a4,t1,1
  4844c0:	006a8eb3          	add	t4,s5,t1
  4844c4:	04e22023          	sw	a4,64(tp) # 40 <buflen.1776>
  4844c8:	005e8023          	sb	t0,0(t4)
  4844cc:	16928063          	beq	t0,s1,48462c <vprintfmt.constprop.3+0x1e0>
  4844d0:	04000593          	li	a1,64
  4844d4:	fcb716e3          	bne	a4,a1,4844a0 <vprintfmt.constprop.3+0x54>
  4844d8:	00412503          	lw	a0,4(sp)
  4844dc:	00777b13          	andi	s6,a4,7
  4844e0:	f0000a37          	lui	s4,0xf0000
  4844e4:	00020793          	mv	a5,tp
  4844e8:	fff70d13          	addi	s10,a4,-1
  4844ec:	080b0c63          	beqz	s6,484584 <vprintfmt.constprop.3+0x138>
  4844f0:	00100693          	li	a3,1
  4844f4:	06db0e63          	beq	s6,a3,484570 <vprintfmt.constprop.3+0x124>
  4844f8:	00200893          	li	a7,2
  4844fc:	071b0263          	beq	s6,a7,484560 <vprintfmt.constprop.3+0x114>
  484500:	00300093          	li	ra,3
  484504:	041b0663          	beq	s6,ra,484550 <vprintfmt.constprop.3+0x104>
  484508:	00400c13          	li	s8,4
  48450c:	038b0a63          	beq	s6,s8,484540 <vprintfmt.constprop.3+0xf4>
  484510:	00500b93          	li	s7,5
  484514:	017b0e63          	beq	s6,s7,484530 <vprintfmt.constprop.3+0xe4>
  484518:	00600913          	li	s2,6
  48451c:	152b1c63          	bne	s6,s2,484674 <vprintfmt.constprop.3+0x228>
  484520:	0007c383          	lbu	t2,0(a5)
  484524:	fff70713          	addi	a4,a4,-1
  484528:	00178793          	addi	a5,a5,1
  48452c:	007a0023          	sb	t2,0(s4) # f0000000 <__C_STACK_TOP__+0xefb60000>
  484530:	0007cf83          	lbu	t6,0(a5)
  484534:	fff70713          	addi	a4,a4,-1
  484538:	00178793          	addi	a5,a5,1
  48453c:	01fa0023          	sb	t6,0(s4)
  484540:	0007cf03          	lbu	t5,0(a5)
  484544:	fff70713          	addi	a4,a4,-1
  484548:	00178793          	addi	a5,a5,1
  48454c:	01ea0023          	sb	t5,0(s4)
  484550:	0007c803          	lbu	a6,0(a5)
  484554:	fff70713          	addi	a4,a4,-1
  484558:	00178793          	addi	a5,a5,1
  48455c:	010a0023          	sb	a6,0(s4)
  484560:	0007c283          	lbu	t0,0(a5)
  484564:	fff70713          	addi	a4,a4,-1
  484568:	00178793          	addi	a5,a5,1
  48456c:	005a0023          	sb	t0,0(s4)
  484570:	00178793          	addi	a5,a5,1
  484574:	fff7c603          	lbu	a2,-1(a5)
  484578:	fff70713          	addi	a4,a4,-1
  48457c:	00ca0023          	sb	a2,0(s4)
  484580:	04070863          	beqz	a4,4845d0 <vprintfmt.constprop.3+0x184>
  484584:	0007cc83          	lbu	s9,0(a5)
  484588:	00878793          	addi	a5,a5,8
  48458c:	ff870713          	addi	a4,a4,-8
  484590:	019a0023          	sb	s9,0(s4)
  484594:	ff97c303          	lbu	t1,-7(a5)
  484598:	006a0023          	sb	t1,0(s4)
  48459c:	ffa7c483          	lbu	s1,-6(a5)
  4845a0:	009a0023          	sb	s1,0(s4)
  4845a4:	ffb7ce83          	lbu	t4,-5(a5)
  4845a8:	01da0023          	sb	t4,0(s4)
  4845ac:	ffc7c583          	lbu	a1,-4(a5)
  4845b0:	00ba0023          	sb	a1,0(s4)
  4845b4:	ffd7cb03          	lbu	s6,-3(a5)
  4845b8:	016a0023          	sb	s6,0(s4)
  4845bc:	ffe7c503          	lbu	a0,-2(a5)
  4845c0:	00aa0023          	sb	a0,0(s4)
  4845c4:	fff7cd03          	lbu	s10,-1(a5)
  4845c8:	01aa0023          	sb	s10,0(s4)
  4845cc:	fa071ce3          	bnez	a4,484584 <vprintfmt.constprop.3+0x138>
  4845d0:	04022023          	sw	zero,64(tp) # 40 <buflen.1776>
  4845d4:	000dc283          	lbu	t0,0(s11)
  4845d8:	02500713          	li	a4,37
  4845dc:	ece298e3          	bne	t0,a4,4844ac <vprintfmt.constprop.3+0x60>
  4845e0:	001dc603          	lbu	a2,1(s11)
  4845e4:	001d8313          	addi	t1,s11,1
  4845e8:	004906b7          	lui	a3,0x490
  4845ec:	00030f13          	mv	t5,t1
  4845f0:	02000b93          	li	s7,32
  4845f4:	fff00493          	li	s1,-1
  4845f8:	fff00c13          	li	s8,-1
  4845fc:	00000913          	li	s2,0
  484600:	05500893          	li	a7,85
  484604:	01068693          	addi	a3,a3,16 # 490010 <__clzsi2+0x6c58>
  484608:	00900093          	li	ra,9
  48460c:	fdd60393          	addi	t2,a2,-35
  484610:	0ff3f593          	andi	a1,t2,255
  484614:	001f0d93          	addi	s11,t5,1
  484618:	7cb8e663          	bltu	a7,a1,484de4 <vprintfmt.constprop.3+0x998>
  48461c:	00259813          	slli	a6,a1,0x2
  484620:	00d80a33          	add	s4,a6,a3
  484624:	000a2b03          	lw	s6,0(s4)
  484628:	000b0067          	jr	s6
  48462c:	eae046e3          	bgtz	a4,4844d8 <vprintfmt.constprop.3+0x8c>
  484630:	04022023          	sw	zero,64(tp) # 40 <buflen.1776>
  484634:	fa1ff06f          	j	4845d4 <vprintfmt.constprop.3+0x188>
  484638:	14c12083          	lw	ra,332(sp)
  48463c:	14812403          	lw	s0,328(sp)
  484640:	14412483          	lw	s1,324(sp)
  484644:	14012903          	lw	s2,320(sp)
  484648:	13c12983          	lw	s3,316(sp)
  48464c:	13812a03          	lw	s4,312(sp)
  484650:	13412a83          	lw	s5,308(sp)
  484654:	13012b03          	lw	s6,304(sp)
  484658:	12c12b83          	lw	s7,300(sp)
  48465c:	12812c03          	lw	s8,296(sp)
  484660:	12412c83          	lw	s9,292(sp)
  484664:	12012d03          	lw	s10,288(sp)
  484668:	11c12d83          	lw	s11,284(sp)
  48466c:	15010113          	addi	sp,sp,336
  484670:	00008067          	ret
  484674:	0007ce03          	lbu	t3,0(a5)
  484678:	000d0713          	mv	a4,s10
  48467c:	00178793          	addi	a5,a5,1
  484680:	01ca0023          	sb	t3,0(s4)
  484684:	e9dff06f          	j	484520 <vprintfmt.constprop.3+0xd4>
  484688:	06100313          	li	t1,97
  48468c:	01000c93          	li	s9,16
  484690:	00000d13          	li	s10,0
  484694:	00612623          	sw	t1,12(sp)
  484698:	00100693          	li	a3,1
  48469c:	3d26d863          	ble	s2,a3,484a6c <vprintfmt.constprop.3+0x620>
  4846a0:	00812583          	lw	a1,8(sp)
  4846a4:	00758493          	addi	s1,a1,7
  4846a8:	ff84fe93          	andi	t4,s1,-8
  4846ac:	000ea903          	lw	s2,0(t4)
  4846b0:	004eab03          	lw	s6,4(t4)
  4846b4:	008e8513          	addi	a0,t4,8
  4846b8:	00a12423          	sw	a0,8(sp)
  4846bc:	000c8613          	mv	a2,s9
  4846c0:	00000693          	li	a3,0
  4846c4:	00090513          	mv	a0,s2
  4846c8:	000b0593          	mv	a1,s6
  4846cc:	0d0040ef          	jal	ra,48879c <__umoddi3>
  4846d0:	00a12823          	sw	a0,16(sp)
  4846d4:	456d0c63          	beq	s10,s6,484b2c <vprintfmt.constprop.3+0x6e0>
  4846d8:	01410a13          	addi	s4,sp,20
  4846dc:	00100493          	li	s1,1
  4846e0:	000c8613          	mv	a2,s9
  4846e4:	00000693          	li	a3,0
  4846e8:	00090513          	mv	a0,s2
  4846ec:	000b0593          	mv	a1,s6
  4846f0:	475030ef          	jal	ra,488364 <__udivdi3>
  4846f4:	000c8613          	mv	a2,s9
  4846f8:	00000693          	li	a3,0
  4846fc:	00050913          	mv	s2,a0
  484700:	00058b13          	mv	s6,a1
  484704:	098040ef          	jal	ra,48879c <__umoddi3>
  484708:	00aa2023          	sw	a0,0(s4)
  48470c:	00148493          	addi	s1,s1,1
  484710:	004a0a13          	addi	s4,s4,4
  484714:	fd6d16e3          	bne	s10,s6,4846e0 <vprintfmt.constprop.3+0x294>
  484718:	fd9974e3          	bleu	s9,s2,4846e0 <vprintfmt.constprop.3+0x294>
  48471c:	04000313          	li	t1,64
  484720:	f0000cb7          	lui	s9,0xf0000
  484724:	0384d263          	ble	s8,s1,484748 <vprintfmt.constprop.3+0x2fc>
  484728:	04022083          	lw	ra,64(tp) # 40 <buflen.1776>
  48472c:	00108e13          	addi	t3,ra,1
  484730:	001a83b3          	add	t2,s5,ra
  484734:	05c22023          	sw	t3,64(tp) # 40 <buflen.1776>
  484738:	01738023          	sb	s7,0(t2)
  48473c:	066e0a63          	beq	t3,t1,4847b0 <vprintfmt.constprop.3+0x364>
  484740:	fffc0c13          	addi	s8,s8,-1
  484744:	ff84c2e3          	blt	s1,s8,484728 <vprintfmt.constprop.3+0x2dc>
  484748:	00c12c03          	lw	s8,12(sp)
  48474c:	00249d13          	slli	s10,s1,0x2
  484750:	11010893          	addi	a7,sp,272
  484754:	01a88fb3          	add	t6,a7,s10
  484758:	efcf8793          	addi	a5,t6,-260
  48475c:	00c10313          	addi	t1,sp,12
  484760:	00900b93          	li	s7,9
  484764:	ff6c0393          	addi	t2,s8,-10
  484768:	00a00093          	li	ra,10
  48476c:	f0000cb7          	lui	s9,0xf0000
  484770:	04000e13          	li	t3,64
  484774:	d2f306e3          	beq	t1,a5,4844a0 <vprintfmt.constprop.3+0x54>
  484778:	0007a703          	lw	a4,0(a5)
  48477c:	03000f13          	li	t5,48
  484780:	00ebf463          	bleu	a4,s7,484788 <vprintfmt.constprop.3+0x33c>
  484784:	00038f13          	mv	t5,t2
  484788:	04022803          	lw	a6,64(tp) # 40 <buflen.1776>
  48478c:	01e702b3          	add	t0,a4,t5
  484790:	00180693          	addi	a3,a6,1
  484794:	010a8633          	add	a2,s5,a6
  484798:	04d22023          	sw	a3,64(tp) # 40 <buflen.1776>
  48479c:	00560023          	sb	t0,0(a2)
  4847a0:	0a128ee3          	beq	t0,ra,48505c <vprintfmt.constprop.3+0xc10>
  4847a4:	0bc68ee3          	beq	a3,t3,485060 <vprintfmt.constprop.3+0xc14>
  4847a8:	ffc78793          	addi	a5,a5,-4
  4847ac:	fc9ff06f          	j	484774 <vprintfmt.constprop.3+0x328>
  4847b0:	41598fb3          	sub	t6,s3,s5
  4847b4:	007fff13          	andi	t5,t6,7
  4847b8:	000a8893          	mv	a7,s5
  4847bc:	080f0663          	beqz	t5,484848 <vprintfmt.constprop.3+0x3fc>
  4847c0:	00100813          	li	a6,1
  4847c4:	070f0a63          	beq	t5,a6,484838 <vprintfmt.constprop.3+0x3ec>
  4847c8:	00200293          	li	t0,2
  4847cc:	065f0063          	beq	t5,t0,48482c <vprintfmt.constprop.3+0x3e0>
  4847d0:	00300613          	li	a2,3
  4847d4:	04cf0663          	beq	t5,a2,484820 <vprintfmt.constprop.3+0x3d4>
  4847d8:	00400713          	li	a4,4
  4847dc:	02ef0c63          	beq	t5,a4,484814 <vprintfmt.constprop.3+0x3c8>
  4847e0:	00500593          	li	a1,5
  4847e4:	02bf0263          	beq	t5,a1,484808 <vprintfmt.constprop.3+0x3bc>
  4847e8:	00600693          	li	a3,6
  4847ec:	00df0863          	beq	t5,a3,4847fc <vprintfmt.constprop.3+0x3b0>
  4847f0:	000ace83          	lbu	t4,0(s5)
  4847f4:	001a8893          	addi	a7,s5,1
  4847f8:	01dc8023          	sb	t4,0(s9) # f0000000 <__C_STACK_TOP__+0xefb60000>
  4847fc:	0008c503          	lbu	a0,0(a7)
  484800:	00188893          	addi	a7,a7,1
  484804:	00ac8023          	sb	a0,0(s9)
  484808:	0008c903          	lbu	s2,0(a7)
  48480c:	00188893          	addi	a7,a7,1
  484810:	012c8023          	sb	s2,0(s9)
  484814:	0008cb03          	lbu	s6,0(a7)
  484818:	00188893          	addi	a7,a7,1
  48481c:	016c8023          	sb	s6,0(s9)
  484820:	0008ca03          	lbu	s4,0(a7)
  484824:	00188893          	addi	a7,a7,1
  484828:	014c8023          	sb	s4,0(s9)
  48482c:	0008cd03          	lbu	s10,0(a7)
  484830:	00188893          	addi	a7,a7,1
  484834:	01ac8023          	sb	s10,0(s9)
  484838:	00188893          	addi	a7,a7,1
  48483c:	fff8c783          	lbu	a5,-1(a7)
  484840:	00fc8023          	sb	a5,0(s9)
  484844:	05388663          	beq	a7,s3,484890 <vprintfmt.constprop.3+0x444>
  484848:	0008c083          	lbu	ra,0(a7)
  48484c:	00888893          	addi	a7,a7,8
  484850:	001c8023          	sb	ra,0(s9)
  484854:	ff98ce03          	lbu	t3,-7(a7)
  484858:	01cc8023          	sb	t3,0(s9)
  48485c:	ffa8c383          	lbu	t2,-6(a7)
  484860:	007c8023          	sb	t2,0(s9)
  484864:	ffb8cf83          	lbu	t6,-5(a7)
  484868:	01fc8023          	sb	t6,0(s9)
  48486c:	ffc8cf03          	lbu	t5,-4(a7)
  484870:	01ec8023          	sb	t5,0(s9)
  484874:	ffd8c803          	lbu	a6,-3(a7)
  484878:	010c8023          	sb	a6,0(s9)
  48487c:	ffe8c283          	lbu	t0,-2(a7)
  484880:	005c8023          	sb	t0,0(s9)
  484884:	fff8c603          	lbu	a2,-1(a7)
  484888:	00cc8023          	sb	a2,0(s9)
  48488c:	fb389ee3          	bne	a7,s3,484848 <vprintfmt.constprop.3+0x3fc>
  484890:	04022023          	sw	zero,64(tp) # 40 <buflen.1776>
  484894:	fffc0c13          	addi	s8,s8,-1
  484898:	eadff06f          	j	484744 <vprintfmt.constprop.3+0x2f8>
  48489c:	001f4603          	lbu	a2,1(t5)
  4848a0:	000d8f13          	mv	t5,s11
  4848a4:	d69ff06f          	j	48460c <vprintfmt.constprop.3+0x1c0>
  4848a8:	04022c03          	lw	s8,64(tp) # 40 <buflen.1776>
  4848ac:	02500393          	li	t2,37
  4848b0:	04000b93          	li	s7,64
  4848b4:	001c0913          	addi	s2,s8,1
  4848b8:	018a8e33          	add	t3,s5,s8
  4848bc:	05222023          	sw	s2,64(tp) # 40 <buflen.1776>
  4848c0:	007e0023          	sb	t2,0(t3)
  4848c4:	bd791ee3          	bne	s2,s7,4844a0 <vprintfmt.constprop.3+0x54>
  4848c8:	41598fb3          	sub	t6,s3,s5
  4848cc:	007fff13          	andi	t5,t6,7
  4848d0:	000a8793          	mv	a5,s5
  4848d4:	f0000837          	lui	a6,0xf0000
  4848d8:	080f0663          	beqz	t5,484964 <vprintfmt.constprop.3+0x518>
  4848dc:	00100293          	li	t0,1
  4848e0:	065f0a63          	beq	t5,t0,484954 <vprintfmt.constprop.3+0x508>
  4848e4:	00200613          	li	a2,2
  4848e8:	06cf0063          	beq	t5,a2,484948 <vprintfmt.constprop.3+0x4fc>
  4848ec:	00300c93          	li	s9,3
  4848f0:	059f0663          	beq	t5,s9,48493c <vprintfmt.constprop.3+0x4f0>
  4848f4:	00400493          	li	s1,4
  4848f8:	029f0c63          	beq	t5,s1,484930 <vprintfmt.constprop.3+0x4e4>
  4848fc:	00500713          	li	a4,5
  484900:	02ef0263          	beq	t5,a4,484924 <vprintfmt.constprop.3+0x4d8>
  484904:	00600e93          	li	t4,6
  484908:	01df0863          	beq	t5,t4,484918 <vprintfmt.constprop.3+0x4cc>
  48490c:	000ac583          	lbu	a1,0(s5)
  484910:	001a8793          	addi	a5,s5,1
  484914:	00b80023          	sb	a1,0(a6) # f0000000 <__C_STACK_TOP__+0xefb60000>
  484918:	0007c503          	lbu	a0,0(a5)
  48491c:	00178793          	addi	a5,a5,1
  484920:	00a80023          	sb	a0,0(a6)
  484924:	0007cb03          	lbu	s6,0(a5)
  484928:	00178793          	addi	a5,a5,1
  48492c:	01680023          	sb	s6,0(a6)
  484930:	0007ca03          	lbu	s4,0(a5)
  484934:	00178793          	addi	a5,a5,1
  484938:	01480023          	sb	s4,0(a6)
  48493c:	0007cd03          	lbu	s10,0(a5)
  484940:	00178793          	addi	a5,a5,1
  484944:	01a80023          	sb	s10,0(a6)
  484948:	0007c303          	lbu	t1,0(a5)
  48494c:	00178793          	addi	a5,a5,1
  484950:	00680023          	sb	t1,0(a6)
  484954:	00178793          	addi	a5,a5,1
  484958:	fff7c683          	lbu	a3,-1(a5)
  48495c:	00d80023          	sb	a3,0(a6)
  484960:	c73788e3          	beq	a5,s3,4845d0 <vprintfmt.constprop.3+0x184>
  484964:	0007c883          	lbu	a7,0(a5)
  484968:	00878793          	addi	a5,a5,8
  48496c:	01180023          	sb	a7,0(a6)
  484970:	ff97c083          	lbu	ra,-7(a5)
  484974:	00180023          	sb	ra,0(a6)
  484978:	ffa7cc03          	lbu	s8,-6(a5)
  48497c:	01880023          	sb	s8,0(a6)
  484980:	ffb7cb83          	lbu	s7,-5(a5)
  484984:	01780023          	sb	s7,0(a6)
  484988:	ffc7c903          	lbu	s2,-4(a5)
  48498c:	01280023          	sb	s2,0(a6)
  484990:	ffd7ce03          	lbu	t3,-3(a5)
  484994:	01c80023          	sb	t3,0(a6)
  484998:	ffe7c383          	lbu	t2,-2(a5)
  48499c:	00780023          	sb	t2,0(a6)
  4849a0:	fff7cf83          	lbu	t6,-1(a5)
  4849a4:	01f80023          	sb	t6,0(a6)
  4849a8:	fb379ee3          	bne	a5,s3,484964 <vprintfmt.constprop.3+0x518>
  4849ac:	c25ff06f          	j	4845d0 <vprintfmt.constprop.3+0x184>
  4849b0:	00812d03          	lw	s10,8(sp)
  4849b4:	001f4603          	lbu	a2,1(t5)
  4849b8:	000d8f13          	mv	t5,s11
  4849bc:	000d2483          	lw	s1,0(s10)
  4849c0:	004d0793          	addi	a5,s10,4
  4849c4:	00f12423          	sw	a5,8(sp)
  4849c8:	c40c52e3          	bgez	s8,48460c <vprintfmt.constprop.3+0x1c0>
  4849cc:	00048c13          	mv	s8,s1
  4849d0:	fff00493          	li	s1,-1
  4849d4:	c39ff06f          	j	48460c <vprintfmt.constprop.3+0x1c0>
  4849d8:	001f4603          	lbu	a2,1(t5)
  4849dc:	02d00b93          	li	s7,45
  4849e0:	000d8f13          	mv	t5,s11
  4849e4:	c29ff06f          	j	48460c <vprintfmt.constprop.3+0x1c0>
  4849e8:	fffc4b13          	not	s6,s8
  4849ec:	41fb5a13          	srai	s4,s6,0x1f
  4849f0:	001f4603          	lbu	a2,1(t5)
  4849f4:	014c7c33          	and	s8,s8,s4
  4849f8:	000d8f13          	mv	t5,s11
  4849fc:	c11ff06f          	j	48460c <vprintfmt.constprop.3+0x1c0>
  484a00:	001f4603          	lbu	a2,1(t5)
  484a04:	03000b93          	li	s7,48
  484a08:	000d8f13          	mv	t5,s11
  484a0c:	c01ff06f          	j	48460c <vprintfmt.constprop.3+0x1c0>
  484a10:	001f4583          	lbu	a1,1(t5)
  484a14:	fd060493          	addi	s1,a2,-48
  484a18:	000d8f13          	mv	t5,s11
  484a1c:	fd058c93          	addi	s9,a1,-48
  484a20:	00058613          	mv	a2,a1
  484a24:	fb90e2e3          	bltu	ra,s9,4849c8 <vprintfmt.constprop.3+0x57c>
  484a28:	00249d93          	slli	s11,s1,0x2
  484a2c:	009d84b3          	add	s1,s11,s1
  484a30:	00149713          	slli	a4,s1,0x1
  484a34:	001f0f13          	addi	t5,t5,1
  484a38:	00b70eb3          	add	t4,a4,a1
  484a3c:	000f4583          	lbu	a1,0(t5)
  484a40:	fd0e8493          	addi	s1,t4,-48
  484a44:	fd058513          	addi	a0,a1,-48
  484a48:	00058613          	mv	a2,a1
  484a4c:	fca0fee3          	bleu	a0,ra,484a28 <vprintfmt.constprop.3+0x5dc>
  484a50:	f79ff06f          	j	4849c8 <vprintfmt.constprop.3+0x57c>
  484a54:	04100293          	li	t0,65
  484a58:	00512623          	sw	t0,12(sp)
  484a5c:	00100693          	li	a3,1
  484a60:	01000c93          	li	s9,16
  484a64:	00000d13          	li	s10,0
  484a68:	c326cce3          	blt	a3,s2,4846a0 <vprintfmt.constprop.3+0x254>
  484a6c:	00812903          	lw	s2,8(sp)
  484a70:	00490613          	addi	a2,s2,4
  484a74:	2180006f          	j	484c8c <vprintfmt.constprop.3+0x840>
  484a78:	00812b83          	lw	s7,8(sp)
  484a7c:	04022c03          	lw	s8,64(tp) # 40 <buflen.1776>
  484a80:	00a00f13          	li	t5,10
  484a84:	000ba303          	lw	t1,0(s7)
  484a88:	001c0793          	addi	a5,s8,1
  484a8c:	018a8a33          	add	s4,s5,s8
  484a90:	04f22023          	sw	a5,64(tp) # 40 <buflen.1776>
  484a94:	006a0023          	sb	t1,0(s4)
  484a98:	004b8913          	addi	s2,s7,4
  484a9c:	4be30463          	beq	t1,t5,484f44 <vprintfmt.constprop.3+0xaf8>
  484aa0:	04000c93          	li	s9,64
  484aa4:	4b978263          	beq	a5,s9,484f48 <vprintfmt.constprop.3+0xafc>
  484aa8:	01212423          	sw	s2,8(sp)
  484aac:	9f5ff06f          	j	4844a0 <vprintfmt.constprop.3+0x54>
  484ab0:	00100a13          	li	s4,1
  484ab4:	0f2a54e3          	ble	s2,s4,48539c <vprintfmt.constprop.3+0xf50>
  484ab8:	00812703          	lw	a4,8(sp)
  484abc:	00770093          	addi	ra,a4,7
  484ac0:	ff80f293          	andi	t0,ra,-8
  484ac4:	0002af83          	lw	t6,0(t0)
  484ac8:	0042ab03          	lw	s6,4(t0)
  484acc:	00828793          	addi	a5,t0,8
  484ad0:	00f12423          	sw	a5,8(sp)
  484ad4:	320b5ae3          	bgez	s6,485608 <vprintfmt.constprop.3+0x11bc>
  484ad8:	04022383          	lw	t2,64(tp) # 40 <buflen.1776>
  484adc:	02d00593          	li	a1,45
  484ae0:	04000813          	li	a6,64
  484ae4:	00138693          	addi	a3,t2,1
  484ae8:	007a8d33          	add	s10,s5,t2
  484aec:	04d22023          	sw	a3,64(tp) # 40 <buflen.1776>
  484af0:	00bd0023          	sb	a1,0(s10)
  484af4:	230684e3          	beq	a3,a6,48551c <vprintfmt.constprop.3+0x10d0>
  484af8:	41f00933          	neg	s2,t6
  484afc:	01203fb3          	snez	t6,s2
  484b00:	41600b33          	neg	s6,s6
  484b04:	41fb0b33          	sub	s6,s6,t6
  484b08:	00a00c93          	li	s9,10
  484b0c:	000c8613          	mv	a2,s9
  484b10:	00000693          	li	a3,0
  484b14:	00090513          	mv	a0,s2
  484b18:	000b0593          	mv	a1,s6
  484b1c:	481030ef          	jal	ra,48879c <__umoddi3>
  484b20:	00000d13          	li	s10,0
  484b24:	00a12823          	sw	a0,16(sp)
  484b28:	bb6d18e3          	bne	s10,s6,4846d8 <vprintfmt.constprop.3+0x28c>
  484b2c:	bb9976e3          	bleu	s9,s2,4846d8 <vprintfmt.constprop.3+0x28c>
  484b30:	00100493          	li	s1,1
  484b34:	be9ff06f          	j	48471c <vprintfmt.constprop.3+0x2d0>
  484b38:	001f4603          	lbu	a2,1(t5)
  484b3c:	00190913          	addi	s2,s2,1
  484b40:	000d8f13          	mv	t5,s11
  484b44:	ac9ff06f          	j	48460c <vprintfmt.constprop.3+0x1c0>
  484b48:	00800c93          	li	s9,8
  484b4c:	00000d13          	li	s10,0
  484b50:	b49ff06f          	j	484698 <vprintfmt.constprop.3+0x24c>
  484b54:	04022903          	lw	s2,64(tp) # 40 <buflen.1776>
  484b58:	00812703          	lw	a4,8(sp)
  484b5c:	03000e13          	li	t3,48
  484b60:	012a8f33          	add	t5,s5,s2
  484b64:	04000a13          	li	s4,64
  484b68:	00190c93          	addi	s9,s2,1
  484b6c:	01cf0023          	sb	t3,0(t5)
  484b70:	00470613          	addi	a2,a4,4
  484b74:	734c8663          	beq	s9,s4,4852a0 <vprintfmt.constprop.3+0xe54>
  484b78:	00290f93          	addi	t6,s2,2
  484b7c:	019a80b3          	add	ra,s5,s9
  484b80:	07800293          	li	t0,120
  484b84:	05f22023          	sw	t6,64(tp) # 40 <buflen.1776>
  484b88:	00508023          	sb	t0,0(ra)
  484b8c:	000a8793          	mv	a5,s5
  484b90:	0f4f9463          	bne	t6,s4,484c78 <vprintfmt.constprop.3+0x82c>
  484b94:	415986b3          	sub	a3,s3,s5
  484b98:	0076f393          	andi	t2,a3,7
  484b9c:	f0000837          	lui	a6,0xf0000
  484ba0:	08038663          	beqz	t2,484c2c <vprintfmt.constprop.3+0x7e0>
  484ba4:	00100593          	li	a1,1
  484ba8:	06b38a63          	beq	t2,a1,484c1c <vprintfmt.constprop.3+0x7d0>
  484bac:	00200b13          	li	s6,2
  484bb0:	07638063          	beq	t2,s6,484c10 <vprintfmt.constprop.3+0x7c4>
  484bb4:	00300d13          	li	s10,3
  484bb8:	05a38663          	beq	t2,s10,484c04 <vprintfmt.constprop.3+0x7b8>
  484bbc:	00400313          	li	t1,4
  484bc0:	02638c63          	beq	t2,t1,484bf8 <vprintfmt.constprop.3+0x7ac>
  484bc4:	00500493          	li	s1,5
  484bc8:	02938263          	beq	t2,s1,484bec <vprintfmt.constprop.3+0x7a0>
  484bcc:	00600e93          	li	t4,6
  484bd0:	01d38863          	beq	t2,t4,484be0 <vprintfmt.constprop.3+0x794>
  484bd4:	000ac503          	lbu	a0,0(s5)
  484bd8:	001a8793          	addi	a5,s5,1
  484bdc:	00a80023          	sb	a0,0(a6) # f0000000 <__C_STACK_TOP__+0xefb60000>
  484be0:	0007c883          	lbu	a7,0(a5)
  484be4:	00178793          	addi	a5,a5,1
  484be8:	01180023          	sb	a7,0(a6)
  484bec:	0007c903          	lbu	s2,0(a5)
  484bf0:	00178793          	addi	a5,a5,1
  484bf4:	01280023          	sb	s2,0(a6)
  484bf8:	0007ca03          	lbu	s4,0(a5)
  484bfc:	00178793          	addi	a5,a5,1
  484c00:	01480023          	sb	s4,0(a6)
  484c04:	0007cf03          	lbu	t5,0(a5)
  484c08:	00178793          	addi	a5,a5,1
  484c0c:	01e80023          	sb	t5,0(a6)
  484c10:	0007cc83          	lbu	s9,0(a5)
  484c14:	00178793          	addi	a5,a5,1
  484c18:	01980023          	sb	s9,0(a6)
  484c1c:	00178793          	addi	a5,a5,1
  484c20:	fff7ce03          	lbu	t3,-1(a5)
  484c24:	01c80023          	sb	t3,0(a6)
  484c28:	05378663          	beq	a5,s3,484c74 <vprintfmt.constprop.3+0x828>
  484c2c:	0007c703          	lbu	a4,0(a5)
  484c30:	00878793          	addi	a5,a5,8
  484c34:	00e80023          	sb	a4,0(a6)
  484c38:	ff97cf83          	lbu	t6,-7(a5)
  484c3c:	01f80023          	sb	t6,0(a6)
  484c40:	ffa7c083          	lbu	ra,-6(a5)
  484c44:	00180023          	sb	ra,0(a6)
  484c48:	ffb7c283          	lbu	t0,-5(a5)
  484c4c:	00580023          	sb	t0,0(a6)
  484c50:	ffc7c683          	lbu	a3,-4(a5)
  484c54:	00d80023          	sb	a3,0(a6)
  484c58:	ffd7c383          	lbu	t2,-3(a5)
  484c5c:	00780023          	sb	t2,0(a6)
  484c60:	ffe7c583          	lbu	a1,-2(a5)
  484c64:	00b80023          	sb	a1,0(a6)
  484c68:	fff7cb03          	lbu	s6,-1(a5)
  484c6c:	01680023          	sb	s6,0(a6)
  484c70:	fb379ee3          	bne	a5,s3,484c2c <vprintfmt.constprop.3+0x7e0>
  484c74:	04022023          	sw	zero,64(tp) # 40 <buflen.1776>
  484c78:	00812903          	lw	s2,8(sp)
  484c7c:	06100893          	li	a7,97
  484c80:	01000c93          	li	s9,16
  484c84:	00000d13          	li	s10,0
  484c88:	01112623          	sw	a7,12(sp)
  484c8c:	00092903          	lw	s2,0(s2)
  484c90:	00000b13          	li	s6,0
  484c94:	00c12423          	sw	a2,8(sp)
  484c98:	a25ff06f          	j	4846bc <vprintfmt.constprop.3+0x270>
  484c9c:	00812503          	lw	a0,8(sp)
  484ca0:	00052a03          	lw	s4,0(a0)
  484ca4:	00450913          	addi	s2,a0,4
  484ca8:	700a0663          	beqz	s4,4853b4 <vprintfmt.constprop.3+0xf68>
  484cac:	5f805263          	blez	s8,485290 <vprintfmt.constprop.3+0xe44>
  484cb0:	02d00613          	li	a2,45
  484cb4:	72cb9c63          	bne	s7,a2,4853ec <vprintfmt.constprop.3+0xfa0>
  484cb8:	000a4b83          	lbu	s7,0(s4)
  484cbc:	000b8e93          	mv	t4,s7
  484cc0:	040b8663          	beqz	s7,484d0c <vprintfmt.constprop.3+0x8c0>
  484cc4:	fff00f13          	li	t5,-1
  484cc8:	00a00c93          	li	s9,10
  484ccc:	f0000d37          	lui	s10,0xf0000
  484cd0:	04000313          	li	t1,64
  484cd4:	5a04d663          	bgez	s1,485280 <vprintfmt.constprop.3+0xe34>
  484cd8:	04022503          	lw	a0,64(tp) # 40 <buflen.1776>
  484cdc:	00150713          	addi	a4,a0,1
  484ce0:	00aa8633          	add	a2,s5,a0
  484ce4:	04e22023          	sw	a4,64(tp) # 40 <buflen.1776>
  484ce8:	01760023          	sb	s7,0(a2)
  484cec:	499e8263          	beq	t4,s9,485170 <vprintfmt.constprop.3+0xd24>
  484cf0:	48670263          	beq	a4,t1,485174 <vprintfmt.constprop.3+0xd28>
  484cf4:	001a0a13          	addi	s4,s4,1
  484cf8:	000a4b83          	lbu	s7,0(s4)
  484cfc:	fffc0c13          	addi	s8,s8,-1
  484d00:	000b8e93          	mv	t4,s7
  484d04:	fc0b98e3          	bnez	s7,484cd4 <vprintfmt.constprop.3+0x888>
  484d08:	db8050e3          	blez	s8,484aa8 <vprintfmt.constprop.3+0x65c>
  484d0c:	04022883          	lw	a7,64(tp) # 40 <buflen.1776>
  484d10:	02000a13          	li	s4,32
  484d14:	04000f13          	li	t5,64
  484d18:	f0000cb7          	lui	s9,0xf0000
  484d1c:	00c0006f          	j	484d28 <vprintfmt.constprop.3+0x8dc>
  484d20:	fffc0c13          	addi	s8,s8,-1
  484d24:	d80c02e3          	beqz	s8,484aa8 <vprintfmt.constprop.3+0x65c>
  484d28:	00188d13          	addi	s10,a7,1
  484d2c:	011a8333          	add	t1,s5,a7
  484d30:	05a22023          	sw	s10,64(tp) # 40 <buflen.1776>
  484d34:	01430023          	sb	s4,0(t1)
  484d38:	000d0893          	mv	a7,s10
  484d3c:	ffed12e3          	bne	s10,t5,484d20 <vprintfmt.constprop.3+0x8d4>
  484d40:	415984b3          	sub	s1,s3,s5
  484d44:	0074fb93          	andi	s7,s1,7
  484d48:	000a8793          	mv	a5,s5
  484d4c:	1a0b8663          	beqz	s7,484ef8 <vprintfmt.constprop.3+0xaac>
  484d50:	00100e93          	li	t4,1
  484d54:	07db8463          	beq	s7,t4,484dbc <vprintfmt.constprop.3+0x970>
  484d58:	00200513          	li	a0,2
  484d5c:	04ab8a63          	beq	s7,a0,484db0 <vprintfmt.constprop.3+0x964>
  484d60:	00300613          	li	a2,3
  484d64:	04cb8063          	beq	s7,a2,484da4 <vprintfmt.constprop.3+0x958>
  484d68:	00400893          	li	a7,4
  484d6c:	031b8663          	beq	s7,a7,484d98 <vprintfmt.constprop.3+0x94c>
  484d70:	00500e13          	li	t3,5
  484d74:	01cb8c63          	beq	s7,t3,484d8c <vprintfmt.constprop.3+0x940>
  484d78:	00600713          	li	a4,6
  484d7c:	64eb9c63          	bne	s7,a4,4853d4 <vprintfmt.constprop.3+0xf88>
  484d80:	0007c083          	lbu	ra,0(a5)
  484d84:	00178793          	addi	a5,a5,1
  484d88:	001c8023          	sb	ra,0(s9) # f0000000 <__C_STACK_TOP__+0xefb60000>
  484d8c:	0007c283          	lbu	t0,0(a5)
  484d90:	00178793          	addi	a5,a5,1
  484d94:	005c8023          	sb	t0,0(s9)
  484d98:	0007c683          	lbu	a3,0(a5)
  484d9c:	00178793          	addi	a5,a5,1
  484da0:	00dc8023          	sb	a3,0(s9)
  484da4:	0007c383          	lbu	t2,0(a5)
  484da8:	00178793          	addi	a5,a5,1
  484dac:	007c8023          	sb	t2,0(s9)
  484db0:	0007c583          	lbu	a1,0(a5)
  484db4:	00178793          	addi	a5,a5,1
  484db8:	00bc8023          	sb	a1,0(s9)
  484dbc:	00178793          	addi	a5,a5,1
  484dc0:	fff7c803          	lbu	a6,-1(a5)
  484dc4:	010c8023          	sb	a6,0(s9)
  484dc8:	13379863          	bne	a5,s3,484ef8 <vprintfmt.constprop.3+0xaac>
  484dcc:	04022023          	sw	zero,64(tp) # 40 <buflen.1776>
  484dd0:	00000893          	li	a7,0
  484dd4:	f4dff06f          	j	484d20 <vprintfmt.constprop.3+0x8d4>
  484dd8:	00a00c93          	li	s9,10
  484ddc:	00000d13          	li	s10,0
  484de0:	8b9ff06f          	j	484698 <vprintfmt.constprop.3+0x24c>
  484de4:	04022d83          	lw	s11,64(tp) # 40 <buflen.1776>
  484de8:	02500613          	li	a2,37
  484dec:	04000f13          	li	t5,64
  484df0:	001d8813          	addi	a6,s11,1
  484df4:	01ba82b3          	add	t0,s5,s11
  484df8:	05022023          	sw	a6,64(tp) # 40 <buflen.1776>
  484dfc:	00c28023          	sb	a2,0(t0)
  484e00:	00030d93          	mv	s11,t1
  484e04:	e9e81e63          	bne	a6,t5,4844a0 <vprintfmt.constprop.3+0x54>
  484e08:	41598cb3          	sub	s9,s3,s5
  484e0c:	007cf493          	andi	s1,s9,7
  484e10:	000a8793          	mv	a5,s5
  484e14:	f0000737          	lui	a4,0xf0000
  484e18:	08048663          	beqz	s1,484ea4 <vprintfmt.constprop.3+0xa58>
  484e1c:	00100e93          	li	t4,1
  484e20:	07d48a63          	beq	s1,t4,484e94 <vprintfmt.constprop.3+0xa48>
  484e24:	00200593          	li	a1,2
  484e28:	06b48063          	beq	s1,a1,484e88 <vprintfmt.constprop.3+0xa3c>
  484e2c:	00300513          	li	a0,3
  484e30:	04a48663          	beq	s1,a0,484e7c <vprintfmt.constprop.3+0xa30>
  484e34:	00400b13          	li	s6,4
  484e38:	03648c63          	beq	s1,s6,484e70 <vprintfmt.constprop.3+0xa24>
  484e3c:	00500a13          	li	s4,5
  484e40:	03448263          	beq	s1,s4,484e64 <vprintfmt.constprop.3+0xa18>
  484e44:	00600d13          	li	s10,6
  484e48:	01a48863          	beq	s1,s10,484e58 <vprintfmt.constprop.3+0xa0c>
  484e4c:	000ac683          	lbu	a3,0(s5)
  484e50:	001a8793          	addi	a5,s5,1
  484e54:	00d70023          	sb	a3,0(a4) # f0000000 <__C_STACK_TOP__+0xefb60000>
  484e58:	0007c883          	lbu	a7,0(a5)
  484e5c:	00178793          	addi	a5,a5,1
  484e60:	01170023          	sb	a7,0(a4)
  484e64:	0007c083          	lbu	ra,0(a5)
  484e68:	00178793          	addi	a5,a5,1
  484e6c:	00170023          	sb	ra,0(a4)
  484e70:	0007cc03          	lbu	s8,0(a5)
  484e74:	00178793          	addi	a5,a5,1
  484e78:	01870023          	sb	s8,0(a4)
  484e7c:	0007cb83          	lbu	s7,0(a5)
  484e80:	00178793          	addi	a5,a5,1
  484e84:	01770023          	sb	s7,0(a4)
  484e88:	0007c903          	lbu	s2,0(a5)
  484e8c:	00178793          	addi	a5,a5,1
  484e90:	01270023          	sb	s2,0(a4)
  484e94:	00178793          	addi	a5,a5,1
  484e98:	fff7ce03          	lbu	t3,-1(a5)
  484e9c:	01c70023          	sb	t3,0(a4)
  484ea0:	05378663          	beq	a5,s3,484eec <vprintfmt.constprop.3+0xaa0>
  484ea4:	0007c383          	lbu	t2,0(a5)
  484ea8:	00878793          	addi	a5,a5,8
  484eac:	00770023          	sb	t2,0(a4)
  484eb0:	ff97cf83          	lbu	t6,-7(a5)
  484eb4:	01f70023          	sb	t6,0(a4)
  484eb8:	ffa7cd83          	lbu	s11,-6(a5)
  484ebc:	01b70023          	sb	s11,0(a4)
  484ec0:	ffb7cf03          	lbu	t5,-5(a5)
  484ec4:	01e70023          	sb	t5,0(a4)
  484ec8:	ffc7c803          	lbu	a6,-4(a5)
  484ecc:	01070023          	sb	a6,0(a4)
  484ed0:	ffd7c283          	lbu	t0,-3(a5)
  484ed4:	00570023          	sb	t0,0(a4)
  484ed8:	ffe7c603          	lbu	a2,-2(a5)
  484edc:	00c70023          	sb	a2,0(a4)
  484ee0:	fff7cc83          	lbu	s9,-1(a5)
  484ee4:	01970023          	sb	s9,0(a4)
  484ee8:	fb379ee3          	bne	a5,s3,484ea4 <vprintfmt.constprop.3+0xa58>
  484eec:	04022023          	sw	zero,64(tp) # 40 <buflen.1776>
  484ef0:	00030d93          	mv	s11,t1
  484ef4:	dacff06f          	j	4844a0 <vprintfmt.constprop.3+0x54>
  484ef8:	0007cb03          	lbu	s6,0(a5)
  484efc:	00878793          	addi	a5,a5,8
  484f00:	016c8023          	sb	s6,0(s9)
  484f04:	ff97cd03          	lbu	s10,-7(a5)
  484f08:	01ac8023          	sb	s10,0(s9)
  484f0c:	ffa7c303          	lbu	t1,-6(a5)
  484f10:	006c8023          	sb	t1,0(s9)
  484f14:	ffb7c483          	lbu	s1,-5(a5)
  484f18:	009c8023          	sb	s1,0(s9)
  484f1c:	ffc7cb83          	lbu	s7,-4(a5)
  484f20:	017c8023          	sb	s7,0(s9)
  484f24:	ffd7ce83          	lbu	t4,-3(a5)
  484f28:	01dc8023          	sb	t4,0(s9)
  484f2c:	ffe7c503          	lbu	a0,-2(a5)
  484f30:	00ac8023          	sb	a0,0(s9)
  484f34:	fff7c603          	lbu	a2,-1(a5)
  484f38:	00cc8023          	sb	a2,0(s9)
  484f3c:	fb379ee3          	bne	a5,s3,484ef8 <vprintfmt.constprop.3+0xaac>
  484f40:	e8dff06f          	j	484dcc <vprintfmt.constprop.3+0x980>
  484f44:	10f05663          	blez	a5,485050 <vprintfmt.constprop.3+0xc04>
  484f48:	00412083          	lw	ra,4(sp)
  484f4c:	0077fe13          	andi	t3,a5,7
  484f50:	f00002b7          	lui	t0,0xf0000
  484f54:	00020713          	mv	a4,tp
  484f58:	fff78393          	addi	t2,a5,-1
  484f5c:	0a0e0463          	beqz	t3,485004 <vprintfmt.constprop.3+0xbb8>
  484f60:	00100813          	li	a6,1
  484f64:	090e0663          	beq	t3,a6,484ff0 <vprintfmt.constprop.3+0xba4>
  484f68:	00200693          	li	a3,2
  484f6c:	06de0a63          	beq	t3,a3,484fe0 <vprintfmt.constprop.3+0xb94>
  484f70:	00300d13          	li	s10,3
  484f74:	05ae0e63          	beq	t3,s10,484fd0 <vprintfmt.constprop.3+0xb84>
  484f78:	00400593          	li	a1,4
  484f7c:	04be0263          	beq	t3,a1,484fc0 <vprintfmt.constprop.3+0xb74>
  484f80:	00500493          	li	s1,5
  484f84:	029e0663          	beq	t3,s1,484fb0 <vprintfmt.constprop.3+0xb64>
  484f88:	00600e93          	li	t4,6
  484f8c:	01de0a63          	beq	t3,t4,484fa0 <vprintfmt.constprop.3+0xb54>
  484f90:	00074503          	lbu	a0,0(a4)
  484f94:	00038793          	mv	a5,t2
  484f98:	00170713          	addi	a4,a4,1
  484f9c:	00a28023          	sb	a0,0(t0) # f0000000 <__C_STACK_TOP__+0xefb60000>
  484fa0:	00074883          	lbu	a7,0(a4)
  484fa4:	fff78793          	addi	a5,a5,-1
  484fa8:	00170713          	addi	a4,a4,1
  484fac:	01128023          	sb	a7,0(t0)
  484fb0:	00074603          	lbu	a2,0(a4)
  484fb4:	fff78793          	addi	a5,a5,-1
  484fb8:	00170713          	addi	a4,a4,1
  484fbc:	00c28023          	sb	a2,0(t0)
  484fc0:	00074f83          	lbu	t6,0(a4)
  484fc4:	fff78793          	addi	a5,a5,-1
  484fc8:	00170713          	addi	a4,a4,1
  484fcc:	01f28023          	sb	t6,0(t0)
  484fd0:	00074b03          	lbu	s6,0(a4)
  484fd4:	fff78793          	addi	a5,a5,-1
  484fd8:	00170713          	addi	a4,a4,1
  484fdc:	01628023          	sb	s6,0(t0)
  484fe0:	00074c03          	lbu	s8,0(a4)
  484fe4:	fff78793          	addi	a5,a5,-1
  484fe8:	00170713          	addi	a4,a4,1
  484fec:	01828023          	sb	s8,0(t0)
  484ff0:	00170713          	addi	a4,a4,1
  484ff4:	fff74b83          	lbu	s7,-1(a4)
  484ff8:	fff78793          	addi	a5,a5,-1
  484ffc:	01728023          	sb	s7,0(t0)
  485000:	04078863          	beqz	a5,485050 <vprintfmt.constprop.3+0xc04>
  485004:	00074303          	lbu	t1,0(a4)
  485008:	00870713          	addi	a4,a4,8
  48500c:	ff878793          	addi	a5,a5,-8
  485010:	00628023          	sb	t1,0(t0)
  485014:	ff974f03          	lbu	t5,-7(a4)
  485018:	01e28023          	sb	t5,0(t0)
  48501c:	ffa74a03          	lbu	s4,-6(a4)
  485020:	01428023          	sb	s4,0(t0)
  485024:	ffb74c83          	lbu	s9,-5(a4)
  485028:	01928023          	sb	s9,0(t0)
  48502c:	ffc74e03          	lbu	t3,-4(a4)
  485030:	01c28023          	sb	t3,0(t0)
  485034:	ffd74083          	lbu	ra,-3(a4)
  485038:	00128023          	sb	ra,0(t0)
  48503c:	ffe74383          	lbu	t2,-2(a4)
  485040:	00728023          	sb	t2,0(t0)
  485044:	fff74803          	lbu	a6,-1(a4)
  485048:	01028023          	sb	a6,0(t0)
  48504c:	fa079ce3          	bnez	a5,485004 <vprintfmt.constprop.3+0xbb8>
  485050:	04022023          	sw	zero,64(tp) # 40 <buflen.1776>
  485054:	01212423          	sw	s2,8(sp)
  485058:	c48ff06f          	j	4844a0 <vprintfmt.constprop.3+0x54>
  48505c:	10d05463          	blez	a3,485164 <vprintfmt.constprop.3+0xd18>
  485060:	00412483          	lw	s1,4(sp)
  485064:	0076f593          	andi	a1,a3,7
  485068:	fff68e93          	addi	t4,a3,-1
  48506c:	00020713          	mv	a4,tp
  485070:	0a058463          	beqz	a1,485118 <vprintfmt.constprop.3+0xccc>
  485074:	00100513          	li	a0,1
  485078:	08a58663          	beq	a1,a0,485104 <vprintfmt.constprop.3+0xcb8>
  48507c:	00200913          	li	s2,2
  485080:	07258a63          	beq	a1,s2,4850f4 <vprintfmt.constprop.3+0xca8>
  485084:	00300b13          	li	s6,3
  485088:	05658e63          	beq	a1,s6,4850e4 <vprintfmt.constprop.3+0xc98>
  48508c:	00400a13          	li	s4,4
  485090:	05458263          	beq	a1,s4,4850d4 <vprintfmt.constprop.3+0xc88>
  485094:	00500d13          	li	s10,5
  485098:	03a58663          	beq	a1,s10,4850c4 <vprintfmt.constprop.3+0xc78>
  48509c:	00600893          	li	a7,6
  4850a0:	01158a63          	beq	a1,a7,4850b4 <vprintfmt.constprop.3+0xc68>
  4850a4:	00074f83          	lbu	t6,0(a4)
  4850a8:	000e8693          	mv	a3,t4
  4850ac:	00170713          	addi	a4,a4,1
  4850b0:	01fc8023          	sb	t6,0(s9)
  4850b4:	00074c03          	lbu	s8,0(a4)
  4850b8:	fff68693          	addi	a3,a3,-1
  4850bc:	00170713          	addi	a4,a4,1
  4850c0:	018c8023          	sb	s8,0(s9)
  4850c4:	00074f03          	lbu	t5,0(a4)
  4850c8:	fff68693          	addi	a3,a3,-1
  4850cc:	00170713          	addi	a4,a4,1
  4850d0:	01ec8023          	sb	t5,0(s9)
  4850d4:	00074803          	lbu	a6,0(a4)
  4850d8:	fff68693          	addi	a3,a3,-1
  4850dc:	00170713          	addi	a4,a4,1
  4850e0:	010c8023          	sb	a6,0(s9)
  4850e4:	00074283          	lbu	t0,0(a4)
  4850e8:	fff68693          	addi	a3,a3,-1
  4850ec:	00170713          	addi	a4,a4,1
  4850f0:	005c8023          	sb	t0,0(s9)
  4850f4:	00074603          	lbu	a2,0(a4)
  4850f8:	fff68693          	addi	a3,a3,-1
  4850fc:	00170713          	addi	a4,a4,1
  485100:	00cc8023          	sb	a2,0(s9)
  485104:	00170713          	addi	a4,a4,1
  485108:	fff74583          	lbu	a1,-1(a4)
  48510c:	fff68693          	addi	a3,a3,-1
  485110:	00bc8023          	sb	a1,0(s9)
  485114:	04068863          	beqz	a3,485164 <vprintfmt.constprop.3+0xd18>
  485118:	00074483          	lbu	s1,0(a4)
  48511c:	00870713          	addi	a4,a4,8
  485120:	ff868693          	addi	a3,a3,-8
  485124:	009c8023          	sb	s1,0(s9)
  485128:	ff974e83          	lbu	t4,-7(a4)
  48512c:	01dc8023          	sb	t4,0(s9)
  485130:	ffa74503          	lbu	a0,-6(a4)
  485134:	00ac8023          	sb	a0,0(s9)
  485138:	ffb74903          	lbu	s2,-5(a4)
  48513c:	012c8023          	sb	s2,0(s9)
  485140:	ffc74b03          	lbu	s6,-4(a4)
  485144:	016c8023          	sb	s6,0(s9)
  485148:	ffd74a03          	lbu	s4,-3(a4)
  48514c:	014c8023          	sb	s4,0(s9)
  485150:	ffe74d03          	lbu	s10,-2(a4)
  485154:	01ac8023          	sb	s10,0(s9)
  485158:	fff74883          	lbu	a7,-1(a4)
  48515c:	011c8023          	sb	a7,0(s9)
  485160:	fa069ce3          	bnez	a3,485118 <vprintfmt.constprop.3+0xccc>
  485164:	04022023          	sw	zero,64(tp) # 40 <buflen.1776>
  485168:	ffc78793          	addi	a5,a5,-4
  48516c:	e08ff06f          	j	484774 <vprintfmt.constprop.3+0x328>
  485170:	10e05463          	blez	a4,485278 <vprintfmt.constprop.3+0xe2c>
  485174:	00412e03          	lw	t3,4(sp)
  485178:	00777893          	andi	a7,a4,7
  48517c:	fff70f93          	addi	t6,a4,-1
  485180:	00020793          	mv	a5,tp
  485184:	0a088463          	beqz	a7,48522c <vprintfmt.constprop.3+0xde0>
  485188:	00100093          	li	ra,1
  48518c:	08188663          	beq	a7,ra,485218 <vprintfmt.constprop.3+0xdcc>
  485190:	00200293          	li	t0,2
  485194:	06588a63          	beq	a7,t0,485208 <vprintfmt.constprop.3+0xdbc>
  485198:	00300693          	li	a3,3
  48519c:	04d88e63          	beq	a7,a3,4851f8 <vprintfmt.constprop.3+0xdac>
  4851a0:	00400393          	li	t2,4
  4851a4:	04788263          	beq	a7,t2,4851e8 <vprintfmt.constprop.3+0xd9c>
  4851a8:	00500593          	li	a1,5
  4851ac:	02b88663          	beq	a7,a1,4851d8 <vprintfmt.constprop.3+0xd8c>
  4851b0:	00600813          	li	a6,6
  4851b4:	01088a63          	beq	a7,a6,4851c8 <vprintfmt.constprop.3+0xd7c>
  4851b8:	0007cb03          	lbu	s6,0(a5)
  4851bc:	000f8713          	mv	a4,t6
  4851c0:	00178793          	addi	a5,a5,1
  4851c4:	016d0023          	sb	s6,0(s10) # f0000000 <__C_STACK_TOP__+0xefb60000>
  4851c8:	0007cb83          	lbu	s7,0(a5)
  4851cc:	fff70713          	addi	a4,a4,-1
  4851d0:	00178793          	addi	a5,a5,1
  4851d4:	017d0023          	sb	s7,0(s10)
  4851d8:	0007ce83          	lbu	t4,0(a5)
  4851dc:	fff70713          	addi	a4,a4,-1
  4851e0:	00178793          	addi	a5,a5,1
  4851e4:	01dd0023          	sb	t4,0(s10)
  4851e8:	0007c503          	lbu	a0,0(a5)
  4851ec:	fff70713          	addi	a4,a4,-1
  4851f0:	00178793          	addi	a5,a5,1
  4851f4:	00ad0023          	sb	a0,0(s10)
  4851f8:	0007c603          	lbu	a2,0(a5)
  4851fc:	fff70713          	addi	a4,a4,-1
  485200:	00178793          	addi	a5,a5,1
  485204:	00cd0023          	sb	a2,0(s10)
  485208:	0007c883          	lbu	a7,0(a5)
  48520c:	fff70713          	addi	a4,a4,-1
  485210:	00178793          	addi	a5,a5,1
  485214:	011d0023          	sb	a7,0(s10)
  485218:	00178793          	addi	a5,a5,1
  48521c:	fff7ce03          	lbu	t3,-1(a5)
  485220:	fff70713          	addi	a4,a4,-1
  485224:	01cd0023          	sb	t3,0(s10)
  485228:	04070863          	beqz	a4,485278 <vprintfmt.constprop.3+0xe2c>
  48522c:	0007cf83          	lbu	t6,0(a5)
  485230:	00878793          	addi	a5,a5,8
  485234:	ff870713          	addi	a4,a4,-8
  485238:	01fd0023          	sb	t6,0(s10)
  48523c:	ff97c083          	lbu	ra,-7(a5)
  485240:	001d0023          	sb	ra,0(s10)
  485244:	ffa7c283          	lbu	t0,-6(a5)
  485248:	005d0023          	sb	t0,0(s10)
  48524c:	ffb7c683          	lbu	a3,-5(a5)
  485250:	00dd0023          	sb	a3,0(s10)
  485254:	ffc7c383          	lbu	t2,-4(a5)
  485258:	007d0023          	sb	t2,0(s10)
  48525c:	ffd7c583          	lbu	a1,-3(a5)
  485260:	00bd0023          	sb	a1,0(s10)
  485264:	ffe7c803          	lbu	a6,-2(a5)
  485268:	010d0023          	sb	a6,0(s10)
  48526c:	fff7cb03          	lbu	s6,-1(a5)
  485270:	016d0023          	sb	s6,0(s10)
  485274:	fa071ce3          	bnez	a4,48522c <vprintfmt.constprop.3+0xde0>
  485278:	04022023          	sw	zero,64(tp) # 40 <buflen.1776>
  48527c:	a79ff06f          	j	484cf4 <vprintfmt.constprop.3+0x8a8>
  485280:	fff48493          	addi	s1,s1,-1
  485284:	a5e49ae3          	bne	s1,t5,484cd8 <vprintfmt.constprop.3+0x88c>
  485288:	a81ff06f          	j	484d08 <vprintfmt.constprop.3+0x8bc>
  48528c:	00000c13          	li	s8,0
  485290:	000a4b83          	lbu	s7,0(s4)
  485294:	000b8e93          	mv	t4,s7
  485298:	a20b96e3          	bnez	s7,484cc4 <vprintfmt.constprop.3+0x878>
  48529c:	80dff06f          	j	484aa8 <vprintfmt.constprop.3+0x65c>
  4852a0:	41598833          	sub	a6,s3,s5
  4852a4:	05922023          	sw	s9,64(tp) # 40 <buflen.1776>
  4852a8:	00787d13          	andi	s10,a6,7
  4852ac:	000a8793          	mv	a5,s5
  4852b0:	f0000337          	lui	t1,0xf0000
  4852b4:	080d0663          	beqz	s10,485340 <vprintfmt.constprop.3+0xef4>
  4852b8:	00100493          	li	s1,1
  4852bc:	069d0a63          	beq	s10,s1,485330 <vprintfmt.constprop.3+0xee4>
  4852c0:	00200e93          	li	t4,2
  4852c4:	07dd0063          	beq	s10,t4,485324 <vprintfmt.constprop.3+0xed8>
  4852c8:	00300513          	li	a0,3
  4852cc:	04ad0663          	beq	s10,a0,485318 <vprintfmt.constprop.3+0xecc>
  4852d0:	00400893          	li	a7,4
  4852d4:	031d0c63          	beq	s10,a7,48530c <vprintfmt.constprop.3+0xec0>
  4852d8:	00500913          	li	s2,5
  4852dc:	032d0263          	beq	s10,s2,485300 <vprintfmt.constprop.3+0xeb4>
  4852e0:	00600a13          	li	s4,6
  4852e4:	014d0863          	beq	s10,s4,4852f4 <vprintfmt.constprop.3+0xea8>
  4852e8:	000acf03          	lbu	t5,0(s5)
  4852ec:	001a8793          	addi	a5,s5,1
  4852f0:	01e30023          	sb	t5,0(t1) # f0000000 <__C_STACK_TOP__+0xefb60000>
  4852f4:	0007cc83          	lbu	s9,0(a5)
  4852f8:	00178793          	addi	a5,a5,1
  4852fc:	01930023          	sb	s9,0(t1)
  485300:	0007ce03          	lbu	t3,0(a5)
  485304:	00178793          	addi	a5,a5,1
  485308:	01c30023          	sb	t3,0(t1)
  48530c:	0007c703          	lbu	a4,0(a5)
  485310:	00178793          	addi	a5,a5,1
  485314:	00e30023          	sb	a4,0(t1)
  485318:	0007cf83          	lbu	t6,0(a5)
  48531c:	00178793          	addi	a5,a5,1
  485320:	01f30023          	sb	t6,0(t1)
  485324:	0007c083          	lbu	ra,0(a5)
  485328:	00178793          	addi	a5,a5,1
  48532c:	00130023          	sb	ra,0(t1)
  485330:	00178793          	addi	a5,a5,1
  485334:	fff7c283          	lbu	t0,-1(a5)
  485338:	00530023          	sb	t0,0(t1)
  48533c:	05378663          	beq	a5,s3,485388 <vprintfmt.constprop.3+0xf3c>
  485340:	0007c683          	lbu	a3,0(a5)
  485344:	00878793          	addi	a5,a5,8
  485348:	00d30023          	sb	a3,0(t1)
  48534c:	ff97c383          	lbu	t2,-7(a5)
  485350:	00730023          	sb	t2,0(t1)
  485354:	ffa7c583          	lbu	a1,-6(a5)
  485358:	00b30023          	sb	a1,0(t1)
  48535c:	ffb7cb03          	lbu	s6,-5(a5)
  485360:	01630023          	sb	s6,0(t1)
  485364:	ffc7c803          	lbu	a6,-4(a5)
  485368:	01030023          	sb	a6,0(t1)
  48536c:	ffd7cd03          	lbu	s10,-3(a5)
  485370:	01a30023          	sb	s10,0(t1)
  485374:	ffe7c483          	lbu	s1,-2(a5)
  485378:	00930023          	sb	s1,0(t1)
  48537c:	fff7ce83          	lbu	t4,-1(a5)
  485380:	01d30023          	sb	t4,0(t1)
  485384:	fb379ee3          	bne	a5,s3,485340 <vprintfmt.constprop.3+0xef4>
  485388:	00100313          	li	t1,1
  48538c:	07800513          	li	a0,120
  485390:	04622023          	sw	t1,64(tp) # 40 <buflen.1776>
  485394:	00aa8023          	sb	a0,0(s5)
  485398:	8e1ff06f          	j	484c78 <vprintfmt.constprop.3+0x82c>
  48539c:	00812c83          	lw	s9,8(sp)
  4853a0:	000caf83          	lw	t6,0(s9)
  4853a4:	004c8e13          	addi	t3,s9,4
  4853a8:	01c12423          	sw	t3,8(sp)
  4853ac:	41ffdb13          	srai	s6,t6,0x1f
  4853b0:	f24ff06f          	j	484ad4 <vprintfmt.constprop.3+0x688>
  4853b4:	01805663          	blez	s8,4853c0 <vprintfmt.constprop.3+0xf74>
  4853b8:	02d00893          	li	a7,45
  4853bc:	031b9463          	bne	s7,a7,4853e4 <vprintfmt.constprop.3+0xf98>
  4853c0:	00490bb7          	lui	s7,0x490
  4853c4:	2f8b8a13          	addi	s4,s7,760 # 4902f8 <__clz_tab+0x100>
  4853c8:	02800e93          	li	t4,40
  4853cc:	02800b93          	li	s7,40
  4853d0:	8f5ff06f          	j	484cc4 <vprintfmt.constprop.3+0x878>
  4853d4:	000acf83          	lbu	t6,0(s5)
  4853d8:	001a8793          	addi	a5,s5,1
  4853dc:	01fc8023          	sb	t6,0(s9)
  4853e0:	9a1ff06f          	j	484d80 <vprintfmt.constprop.3+0x934>
  4853e4:	00490e37          	lui	t3,0x490
  4853e8:	2f8e0a13          	addi	s4,t3,760 # 4902f8 <__clz_tab+0x100>
  4853ec:	00048593          	mv	a1,s1
  4853f0:	000a0513          	mv	a0,s4
  4853f4:	211020ef          	jal	ra,487e04 <strnlen>
  4853f8:	40ac0c33          	sub	s8,s8,a0
  4853fc:	e9805ae3          	blez	s8,485290 <vprintfmt.constprop.3+0xe44>
  485400:	04022b03          	lw	s6,64(tp) # 40 <buflen.1776>
  485404:	04000e93          	li	t4,64
  485408:	f0000f37          	lui	t5,0xf0000
  48540c:	00c0006f          	j	485418 <vprintfmt.constprop.3+0xfcc>
  485410:	fffc0c13          	addi	s8,s8,-1
  485414:	e60c0ce3          	beqz	s8,48528c <vprintfmt.constprop.3+0xe40>
  485418:	001b0f93          	addi	t6,s6,1
  48541c:	016a87b3          	add	a5,s5,s6
  485420:	05f22023          	sw	t6,64(tp) # 40 <buflen.1776>
  485424:	01778023          	sb	s7,0(a5)
  485428:	000f8b13          	mv	s6,t6
  48542c:	ffdf92e3          	bne	t6,t4,485410 <vprintfmt.constprop.3+0xfc4>
  485430:	415980b3          	sub	ra,s3,s5
  485434:	0070f293          	andi	t0,ra,7
  485438:	000a8e13          	mv	t3,s5
  48543c:	08028663          	beqz	t0,4854c8 <vprintfmt.constprop.3+0x107c>
  485440:	00100713          	li	a4,1
  485444:	06e28a63          	beq	t0,a4,4854b8 <vprintfmt.constprop.3+0x106c>
  485448:	00200693          	li	a3,2
  48544c:	06d28063          	beq	t0,a3,4854ac <vprintfmt.constprop.3+0x1060>
  485450:	00300393          	li	t2,3
  485454:	04728663          	beq	t0,t2,4854a0 <vprintfmt.constprop.3+0x1054>
  485458:	00400593          	li	a1,4
  48545c:	02b28c63          	beq	t0,a1,485494 <vprintfmt.constprop.3+0x1048>
  485460:	00500813          	li	a6,5
  485464:	03028263          	beq	t0,a6,485488 <vprintfmt.constprop.3+0x103c>
  485468:	00600b13          	li	s6,6
  48546c:	01628863          	beq	t0,s6,48547c <vprintfmt.constprop.3+0x1030>
  485470:	000acc83          	lbu	s9,0(s5)
  485474:	001a8e13          	addi	t3,s5,1
  485478:	019f0023          	sb	s9,0(t5) # f0000000 <__C_STACK_TOP__+0xefb60000>
  48547c:	000e4d03          	lbu	s10,0(t3)
  485480:	001e0e13          	addi	t3,t3,1
  485484:	01af0023          	sb	s10,0(t5)
  485488:	000e4303          	lbu	t1,0(t3)
  48548c:	001e0e13          	addi	t3,t3,1
  485490:	006f0023          	sb	t1,0(t5)
  485494:	000e4503          	lbu	a0,0(t3)
  485498:	001e0e13          	addi	t3,t3,1
  48549c:	00af0023          	sb	a0,0(t5)
